

Microchip Technology PIC LITE Macro Assembler V1.35 build -356382666 
                                                                                               Mon Jul 25 00:36:38 2016

Microchip Technology Omniscient Code Generator v1.35 (Free mode) build 201507080246
     1                           	processor	16F1619
     2                           	opt	pw 120
     3                           	opt	lm
     4                           	psect	stringtext,global,class=STRCODE,delta=2
     5                           	psect	cinit,global,class=CODE,merge=1,delta=2
     6                           	psect	cstackCOMMON,global,class=COMMON,space=1,delta=1
     7                           	psect	cstackBANK0,global,class=BANK0,space=1,delta=1
     8                           	psect	maintext,global,class=CODE,merge=1,split=1,delta=2
     9                           	psect	text1,local,class=CODE,merge=1,delta=2
    10                           	psect	text2,local,class=CODE,merge=1,delta=2
    11                           	psect	text3,local,class=CODE,merge=1,delta=2
    12                           	psect	text4,local,class=CODE,merge=1,delta=2
    13                           	psect	text5,local,class=CODE,merge=1,delta=2
    14                           	psect	text6,local,class=CODE,merge=1,delta=2
    15                           	psect	text7,local,class=CODE,merge=1,delta=2
    16                           	psect	text8,local,class=CODE,merge=1,delta=2
    17                           	psect	text9,local,class=CODE,merge=1,delta=2
    18                           	psect	text10,local,class=CODE,merge=1,delta=2
    19                           	psect	text11,local,class=CODE,merge=1,delta=2
    20                           	dabs	1,0x7E,2
    21  0000                     	;# 
    22  0001                     	;# 
    23  0002                     	;# 
    24  0003                     	;# 
    25  0004                     	;# 
    26  0005                     	;# 
    27  0006                     	;# 
    28  0007                     	;# 
    29  0008                     	;# 
    30  0009                     	;# 
    31  000A                     	;# 
    32  000B                     	;# 
    33  000C                     	;# 
    34  000D                     	;# 
    35  000E                     	;# 
    36  0010                     	;# 
    37  0011                     	;# 
    38  0012                     	;# 
    39  0013                     	;# 
    40  0014                     	;# 
    41  0015                     	;# 
    42  0016                     	;# 
    43  0016                     	;# 
    44  0017                     	;# 
    45  0018                     	;# 
    46  0019                     	;# 
    47  001A                     	;# 
    48  001A                     	;# 
    49  001B                     	;# 
    50  001B                     	;# 
    51  001C                     	;# 
    52  001D                     	;# 
    53  001E                     	;# 
    54  001F                     	;# 
    55  008C                     	;# 
    56  008D                     	;# 
    57  008E                     	;# 
    58  0090                     	;# 
    59  0091                     	;# 
    60  0092                     	;# 
    61  0093                     	;# 
    62  0094                     	;# 
    63  0095                     	;# 
    64  0096                     	;# 
    65  0098                     	;# 
    66  0099                     	;# 
    67  009A                     	;# 
    68  009B                     	;# 
    69  009B                     	;# 
    70  009C                     	;# 
    71  009D                     	;# 
    72  009E                     	;# 
    73  009F                     	;# 
    74  010C                     	;# 
    75  010D                     	;# 
    76  010E                     	;# 
    77  0111                     	;# 
    78  0112                     	;# 
    79  0113                     	;# 
    80  0114                     	;# 
    81  0115                     	;# 
    82  0116                     	;# 
    83  0117                     	;# 
    84  0118                     	;# 
    85  0119                     	;# 
    86  011C                     	;# 
    87  018C                     	;# 
    88  018D                     	;# 
    89  018E                     	;# 
    90  0191                     	;# 
    91  0191                     	;# 
    92  0192                     	;# 
    93  0193                     	;# 
    94  0193                     	;# 
    95  0194                     	;# 
    96  0195                     	;# 
    97  0196                     	;# 
    98  0197                     	;# 
    99  0199                     	;# 
   100  0199                     	;# 
   101  0199                     	;# 
   102  019A                     	;# 
   103  019A                     	;# 
   104  019A                     	;# 
   105  019B                     	;# 
   106  019B                     	;# 
   107  019B                     	;# 
   108  019B                     	;# 
   109  019B                     	;# 
   110  019C                     	;# 
   111  019C                     	;# 
   112  019C                     	;# 
   113  019D                     	;# 
   114  019D                     	;# 
   115  019D                     	;# 
   116  019E                     	;# 
   117  019E                     	;# 
   118  019E                     	;# 
   119  019F                     	;# 
   120  019F                     	;# 
   121  019F                     	;# 
   122  019F                     	;# 
   123  019F                     	;# 
   124  020C                     	;# 
   125  020D                     	;# 
   126  020E                     	;# 
   127  0211                     	;# 
   128  0211                     	;# 
   129  0212                     	;# 
   130  0212                     	;# 
   131  0213                     	;# 
   132  0213                     	;# 
   133  0214                     	;# 
   134  0214                     	;# 
   135  0215                     	;# 
   136  0215                     	;# 
   137  0215                     	;# 
   138  0215                     	;# 
   139  0216                     	;# 
   140  0216                     	;# 
   141  0217                     	;# 
   142  0217                     	;# 
   143  028C                     	;# 
   144  028D                     	;# 
   145  028E                     	;# 
   146  0291                     	;# 
   147  0291                     	;# 
   148  0292                     	;# 
   149  0293                     	;# 
   150  0294                     	;# 
   151  0298                     	;# 
   152  0298                     	;# 
   153  0299                     	;# 
   154  029A                     	;# 
   155  029B                     	;# 
   156  029E                     	;# 
   157  030C                     	;# 
   158  030D                     	;# 
   159  030E                     	;# 
   160  038C                     	;# 
   161  038D                     	;# 
   162  038E                     	;# 
   163  0391                     	;# 
   164  0392                     	;# 
   165  0393                     	;# 
   166  0394                     	;# 
   167  0395                     	;# 
   168  0396                     	;# 
   169  0397                     	;# 
   170  0398                     	;# 
   171  0399                     	;# 
   172  040E                     	;# 
   173  0413                     	;# 
   174  0413                     	;# 
   175  0414                     	;# 
   176  0414                     	;# 
   177  0415                     	;# 
   178  0416                     	;# 
   179  0417                     	;# 
   180  0418                     	;# 
   181  041A                     	;# 
   182  041A                     	;# 
   183  041B                     	;# 
   184  041B                     	;# 
   185  041C                     	;# 
   186  041D                     	;# 
   187  041E                     	;# 
   188  041F                     	;# 
   189  0493                     	;# 
   190  0494                     	;# 
   191  0495                     	;# 
   192  0496                     	;# 
   193  049A                     	;# 
   194  049B                     	;# 
   195  049C                     	;# 
   196  049D                     	;# 
   197  058C                     	;# 
   198  058C                     	;# 
   199  058D                     	;# 
   200  058E                     	;# 
   201  058E                     	;# 
   202  058F                     	;# 
   203  0590                     	;# 
   204  0590                     	;# 
   205  0591                     	;# 
   206  0592                     	;# 
   207  0592                     	;# 
   208  0593                     	;# 
   209  0594                     	;# 
   210  0594                     	;# 
   211  0595                     	;# 
   212  0596                     	;# 
   213  0596                     	;# 
   214  0597                     	;# 
   215  0598                     	;# 
   216  0599                     	;# 
   217  059A                     	;# 
   218  059B                     	;# 
   219  059B                     	;# 
   220  059C                     	;# 
   221  059D                     	;# 
   222  060C                     	;# 
   223  060C                     	;# 
   224  060D                     	;# 
   225  060E                     	;# 
   226  060F                     	;# 
   227  060F                     	;# 
   228  0610                     	;# 
   229  0611                     	;# 
   230  0612                     	;# 
   231  0613                     	;# 
   232  0614                     	;# 
   233  0617                     	;# 
   234  0618                     	;# 
   235  0619                     	;# 
   236  061A                     	;# 
   237  061B                     	;# 
   238  061C                     	;# 
   239  0691                     	;# 
   240  0692                     	;# 
   241  0693                     	;# 
   242  0694                     	;# 
   243  0695                     	;# 
   244  0696                     	;# 
   245  0697                     	;# 
   246  0699                     	;# 
   247  069A                     	;# 
   248  0711                     	;# 
   249  0712                     	;# 
   250  0713                     	;# 
   251  0714                     	;# 
   252  0715                     	;# 
   253  0718                     	;# 
   254  0718                     	;# 
   255  0719                     	;# 
   256  071A                     	;# 
   257  071A                     	;# 
   258  071B                     	;# 
   259  071C                     	;# 
   260  071D                     	;# 
   261  0791                     	;# 
   262  0791                     	;# 
   263  0792                     	;# 
   264  0793                     	;# 
   265  0793                     	;# 
   266  0794                     	;# 
   267  0795                     	;# 
   268  0795                     	;# 
   269  0796                     	;# 
   270  0797                     	;# 
   271  0797                     	;# 
   272  0798                     	;# 
   273  0799                     	;# 
   274  079A                     	;# 
   275  080C                     	;# 
   276  080C                     	;# 
   277  080D                     	;# 
   278  080E                     	;# 
   279  080E                     	;# 
   280  080F                     	;# 
   281  0810                     	;# 
   282  0810                     	;# 
   283  0811                     	;# 
   284  0812                     	;# 
   285  0812                     	;# 
   286  0813                     	;# 
   287  0814                     	;# 
   288  0815                     	;# 
   289  0816                     	;# 
   290  0817                     	;# 
   291  0818                     	;# 
   292  0819                     	;# 
   293  081A                     	;# 
   294  081A                     	;# 
   295  081B                     	;# 
   296  081C                     	;# 
   297  081C                     	;# 
   298  081D                     	;# 
   299  088C                     	;# 
   300  088D                     	;# 
   301  088E                     	;# 
   302  088F                     	;# 
   303  088F                     	;# 
   304  0890                     	;# 
   305  0891                     	;# 
   306  0892                     	;# 
   307  0893                     	;# 
   308  0893                     	;# 
   309  0894                     	;# 
   310  0895                     	;# 
   311  0896                     	;# 
   312  0897                     	;# 
   313  0897                     	;# 
   314  0898                     	;# 
   315  0899                     	;# 
   316  0D8C                     	;# 
   317  0D8C                     	;# 
   318  0D8D                     	;# 
   319  0D8E                     	;# 
   320  0D8F                     	;# 
   321  0D8F                     	;# 
   322  0D90                     	;# 
   323  0D91                     	;# 
   324  0D92                     	;# 
   325  0D92                     	;# 
   326  0D93                     	;# 
   327  0D94                     	;# 
   328  0D95                     	;# 
   329  0D95                     	;# 
   330  0D96                     	;# 
   331  0D97                     	;# 
   332  0D98                     	;# 
   333  0D99                     	;# 
   334  0D9A                     	;# 
   335  0D9B                     	;# 
   336  0D9C                     	;# 
   337  0D9D                     	;# 
   338  0D9E                     	;# 
   339  0D9E                     	;# 
   340  0D9F                     	;# 
   341  0DA0                     	;# 
   342  0DA1                     	;# 
   343  0DA1                     	;# 
   344  0DA2                     	;# 
   345  0DA3                     	;# 
   346  0DA4                     	;# 
   347  0DA4                     	;# 
   348  0DA5                     	;# 
   349  0DA6                     	;# 
   350  0DA7                     	;# 
   351  0DA7                     	;# 
   352  0DA8                     	;# 
   353  0DA9                     	;# 
   354  0DAA                     	;# 
   355  0DAB                     	;# 
   356  0DAC                     	;# 
   357  0DAD                     	;# 
   358  0DAE                     	;# 
   359  0DAF                     	;# 
   360  0E0F                     	;# 
   361  0E10                     	;# 
   362  0E11                     	;# 
   363  0E12                     	;# 
   364  0E13                     	;# 
   365  0E14                     	;# 
   366  0E15                     	;# 
   367  0E16                     	;# 
   368  0E17                     	;# 
   369  0E18                     	;# 
   370  0E19                     	;# 
   371  0E1A                     	;# 
   372  0E1B                     	;# 
   373  0E1C                     	;# 
   374  0E1D                     	;# 
   375  0E1E                     	;# 
   376  0E1F                     	;# 
   377  0E20                     	;# 
   378  0E21                     	;# 
   379  0E22                     	;# 
   380  0E23                     	;# 
   381  0E24                     	;# 
   382  0E25                     	;# 
   383  0E26                     	;# 
   384  0E27                     	;# 
   385  0E28                     	;# 
   386  0E29                     	;# 
   387  0E2A                     	;# 
   388  0E2B                     	;# 
   389  0E2C                     	;# 
   390  0E2D                     	;# 
   391  0E2E                     	;# 
   392  0E90                     	;# 
   393  0E91                     	;# 
   394  0E92                     	;# 
   395  0E94                     	;# 
   396  0E95                     	;# 
   397  0E9C                     	;# 
   398  0E9D                     	;# 
   399  0E9E                     	;# 
   400  0E9F                     	;# 
   401  0EA0                     	;# 
   402  0EA1                     	;# 
   403  0EA2                     	;# 
   404  0EA3                     	;# 
   405  0EA4                     	;# 
   406  0EA5                     	;# 
   407  0EA6                     	;# 
   408  0EA7                     	;# 
   409  0F0F                     	;# 
   410  0F10                     	;# 
   411  0F11                     	;# 
   412  0F12                     	;# 
   413  0F13                     	;# 
   414  0F14                     	;# 
   415  0F15                     	;# 
   416  0F16                     	;# 
   417  0F17                     	;# 
   418  0F18                     	;# 
   419  0F19                     	;# 
   420  0F1A                     	;# 
   421  0F1B                     	;# 
   422  0F1C                     	;# 
   423  0F1D                     	;# 
   424  0F1E                     	;# 
   425  0F1F                     	;# 
   426  0F20                     	;# 
   427  0F21                     	;# 
   428  0F22                     	;# 
   429  0F23                     	;# 
   430  0F24                     	;# 
   431  0F25                     	;# 
   432  0F26                     	;# 
   433  0F27                     	;# 
   434  0F28                     	;# 
   435  0F29                     	;# 
   436  0F2A                     	;# 
   437  0F2B                     	;# 
   438  0F2C                     	;# 
   439  0F2D                     	;# 
   440  0F2E                     	;# 
   441  0F2F                     	;# 
   442  0F30                     	;# 
   443  0F31                     	;# 
   444  0F32                     	;# 
   445  0F33                     	;# 
   446  0F34                     	;# 
   447  0F35                     	;# 
   448  0F36                     	;# 
   449  0F37                     	;# 
   450  0FE4                     	;# 
   451  0FE5                     	;# 
   452  0FE6                     	;# 
   453  0FE7                     	;# 
   454  0FE8                     	;# 
   455  0FE9                     	;# 
   456  0FEA                     	;# 
   457  0FEB                     	;# 
   458  0FED                     	;# 
   459  0FEE                     	;# 
   460  0FEF                     	;# 
   461  0000                     	;# 
   462  0001                     	;# 
   463  0002                     	;# 
   464  0003                     	;# 
   465  0004                     	;# 
   466  0005                     	;# 
   467  0006                     	;# 
   468  0007                     	;# 
   469  0008                     	;# 
   470  0009                     	;# 
   471  000A                     	;# 
   472  000B                     	;# 
   473  000C                     	;# 
   474  000D                     	;# 
   475  000E                     	;# 
   476  0010                     	;# 
   477  0011                     	;# 
   478  0012                     	;# 
   479  0013                     	;# 
   480  0014                     	;# 
   481  0015                     	;# 
   482  0016                     	;# 
   483  0016                     	;# 
   484  0017                     	;# 
   485  0018                     	;# 
   486  0019                     	;# 
   487  001A                     	;# 
   488  001A                     	;# 
   489  001B                     	;# 
   490  001B                     	;# 
   491  001C                     	;# 
   492  001D                     	;# 
   493  001E                     	;# 
   494  001F                     	;# 
   495  008C                     	;# 
   496  008D                     	;# 
   497  008E                     	;# 
   498  0090                     	;# 
   499  0091                     	;# 
   500  0092                     	;# 
   501  0093                     	;# 
   502  0094                     	;# 
   503  0095                     	;# 
   504  0096                     	;# 
   505  0098                     	;# 
   506  0099                     	;# 
   507  009A                     	;# 
   508  009B                     	;# 
   509  009B                     	;# 
   510  009C                     	;# 
   511  009D                     	;# 
   512  009E                     	;# 
   513  009F                     	;# 
   514  010C                     	;# 
   515  010D                     	;# 
   516  010E                     	;# 
   517  0111                     	;# 
   518  0112                     	;# 
   519  0113                     	;# 
   520  0114                     	;# 
   521  0115                     	;# 
   522  0116                     	;# 
   523  0117                     	;# 
   524  0118                     	;# 
   525  0119                     	;# 
   526  011C                     	;# 
   527  018C                     	;# 
   528  018D                     	;# 
   529  018E                     	;# 
   530  0191                     	;# 
   531  0191                     	;# 
   532  0192                     	;# 
   533  0193                     	;# 
   534  0193                     	;# 
   535  0194                     	;# 
   536  0195                     	;# 
   537  0196                     	;# 
   538  0197                     	;# 
   539  0199                     	;# 
   540  0199                     	;# 
   541  0199                     	;# 
   542  019A                     	;# 
   543  019A                     	;# 
   544  019A                     	;# 
   545  019B                     	;# 
   546  019B                     	;# 
   547  019B                     	;# 
   548  019B                     	;# 
   549  019B                     	;# 
   550  019C                     	;# 
   551  019C                     	;# 
   552  019C                     	;# 
   553  019D                     	;# 
   554  019D                     	;# 
   555  019D                     	;# 
   556  019E                     	;# 
   557  019E                     	;# 
   558  019E                     	;# 
   559  019F                     	;# 
   560  019F                     	;# 
   561  019F                     	;# 
   562  019F                     	;# 
   563  019F                     	;# 
   564  020C                     	;# 
   565  020D                     	;# 
   566  020E                     	;# 
   567  0211                     	;# 
   568  0211                     	;# 
   569  0212                     	;# 
   570  0212                     	;# 
   571  0213                     	;# 
   572  0213                     	;# 
   573  0214                     	;# 
   574  0214                     	;# 
   575  0215                     	;# 
   576  0215                     	;# 
   577  0215                     	;# 
   578  0215                     	;# 
   579  0216                     	;# 
   580  0216                     	;# 
   581  0217                     	;# 
   582  0217                     	;# 
   583  028C                     	;# 
   584  028D                     	;# 
   585  028E                     	;# 
   586  0291                     	;# 
   587  0291                     	;# 
   588  0292                     	;# 
   589  0293                     	;# 
   590  0294                     	;# 
   591  0298                     	;# 
   592  0298                     	;# 
   593  0299                     	;# 
   594  029A                     	;# 
   595  029B                     	;# 
   596  029E                     	;# 
   597  030C                     	;# 
   598  030D                     	;# 
   599  030E                     	;# 
   600  038C                     	;# 
   601  038D                     	;# 
   602  038E                     	;# 
   603  0391                     	;# 
   604  0392                     	;# 
   605  0393                     	;# 
   606  0394                     	;# 
   607  0395                     	;# 
   608  0396                     	;# 
   609  0397                     	;# 
   610  0398                     	;# 
   611  0399                     	;# 
   612  040E                     	;# 
   613  0413                     	;# 
   614  0413                     	;# 
   615  0414                     	;# 
   616  0414                     	;# 
   617  0415                     	;# 
   618  0416                     	;# 
   619  0417                     	;# 
   620  0418                     	;# 
   621  041A                     	;# 
   622  041A                     	;# 
   623  041B                     	;# 
   624  041B                     	;# 
   625  041C                     	;# 
   626  041D                     	;# 
   627  041E                     	;# 
   628  041F                     	;# 
   629  0493                     	;# 
   630  0494                     	;# 
   631  0495                     	;# 
   632  0496                     	;# 
   633  049A                     	;# 
   634  049B                     	;# 
   635  049C                     	;# 
   636  049D                     	;# 
   637  058C                     	;# 
   638  058C                     	;# 
   639  058D                     	;# 
   640  058E                     	;# 
   641  058E                     	;# 
   642  058F                     	;# 
   643  0590                     	;# 
   644  0590                     	;# 
   645  0591                     	;# 
   646  0592                     	;# 
   647  0592                     	;# 
   648  0593                     	;# 
   649  0594                     	;# 
   650  0594                     	;# 
   651  0595                     	;# 
   652  0596                     	;# 
   653  0596                     	;# 
   654  0597                     	;# 
   655  0598                     	;# 
   656  0599                     	;# 
   657  059A                     	;# 
   658  059B                     	;# 
   659  059B                     	;# 
   660  059C                     	;# 
   661  059D                     	;# 
   662  060C                     	;# 
   663  060C                     	;# 
   664  060D                     	;# 
   665  060E                     	;# 
   666  060F                     	;# 
   667  060F                     	;# 
   668  0610                     	;# 
   669  0611                     	;# 
   670  0612                     	;# 
   671  0613                     	;# 
   672  0614                     	;# 
   673  0617                     	;# 
   674  0618                     	;# 
   675  0619                     	;# 
   676  061A                     	;# 
   677  061B                     	;# 
   678  061C                     	;# 
   679  0691                     	;# 
   680  0692                     	;# 
   681  0693                     	;# 
   682  0694                     	;# 
   683  0695                     	;# 
   684  0696                     	;# 
   685  0697                     	;# 
   686  0699                     	;# 
   687  069A                     	;# 
   688  0711                     	;# 
   689  0712                     	;# 
   690  0713                     	;# 
   691  0714                     	;# 
   692  0715                     	;# 
   693  0718                     	;# 
   694  0718                     	;# 
   695  0719                     	;# 
   696  071A                     	;# 
   697  071A                     	;# 
   698  071B                     	;# 
   699  071C                     	;# 
   700  071D                     	;# 
   701  0791                     	;# 
   702  0791                     	;# 
   703  0792                     	;# 
   704  0793                     	;# 
   705  0793                     	;# 
   706  0794                     	;# 
   707  0795                     	;# 
   708  0795                     	;# 
   709  0796                     	;# 
   710  0797                     	;# 
   711  0797                     	;# 
   712  0798                     	;# 
   713  0799                     	;# 
   714  079A                     	;# 
   715  080C                     	;# 
   716  080C                     	;# 
   717  080D                     	;# 
   718  080E                     	;# 
   719  080E                     	;# 
   720  080F                     	;# 
   721  0810                     	;# 
   722  0810                     	;# 
   723  0811                     	;# 
   724  0812                     	;# 
   725  0812                     	;# 
   726  0813                     	;# 
   727  0814                     	;# 
   728  0815                     	;# 
   729  0816                     	;# 
   730  0817                     	;# 
   731  0818                     	;# 
   732  0819                     	;# 
   733  081A                     	;# 
   734  081A                     	;# 
   735  081B                     	;# 
   736  081C                     	;# 
   737  081C                     	;# 
   738  081D                     	;# 
   739  088C                     	;# 
   740  088D                     	;# 
   741  088E                     	;# 
   742  088F                     	;# 
   743  088F                     	;# 
   744  0890                     	;# 
   745  0891                     	;# 
   746  0892                     	;# 
   747  0893                     	;# 
   748  0893                     	;# 
   749  0894                     	;# 
   750  0895                     	;# 
   751  0896                     	;# 
   752  0897                     	;# 
   753  0897                     	;# 
   754  0898                     	;# 
   755  0899                     	;# 
   756  0D8C                     	;# 
   757  0D8C                     	;# 
   758  0D8D                     	;# 
   759  0D8E                     	;# 
   760  0D8F                     	;# 
   761  0D8F                     	;# 
   762  0D90                     	;# 
   763  0D91                     	;# 
   764  0D92                     	;# 
   765  0D92                     	;# 
   766  0D93                     	;# 
   767  0D94                     	;# 
   768  0D95                     	;# 
   769  0D95                     	;# 
   770  0D96                     	;# 
   771  0D97                     	;# 
   772  0D98                     	;# 
   773  0D99                     	;# 
   774  0D9A                     	;# 
   775  0D9B                     	;# 
   776  0D9C                     	;# 
   777  0D9D                     	;# 
   778  0D9E                     	;# 
   779  0D9E                     	;# 
   780  0D9F                     	;# 
   781  0DA0                     	;# 
   782  0DA1                     	;# 
   783  0DA1                     	;# 
   784  0DA2                     	;# 
   785  0DA3                     	;# 
   786  0DA4                     	;# 
   787  0DA4                     	;# 
   788  0DA5                     	;# 
   789  0DA6                     	;# 
   790  0DA7                     	;# 
   791  0DA7                     	;# 
   792  0DA8                     	;# 
   793  0DA9                     	;# 
   794  0DAA                     	;# 
   795  0DAB                     	;# 
   796  0DAC                     	;# 
   797  0DAD                     	;# 
   798  0DAE                     	;# 
   799  0DAF                     	;# 
   800  0E0F                     	;# 
   801  0E10                     	;# 
   802  0E11                     	;# 
   803  0E12                     	;# 
   804  0E13                     	;# 
   805  0E14                     	;# 
   806  0E15                     	;# 
   807  0E16                     	;# 
   808  0E17                     	;# 
   809  0E18                     	;# 
   810  0E19                     	;# 
   811  0E1A                     	;# 
   812  0E1B                     	;# 
   813  0E1C                     	;# 
   814  0E1D                     	;# 
   815  0E1E                     	;# 
   816  0E1F                     	;# 
   817  0E20                     	;# 
   818  0E21                     	;# 
   819  0E22                     	;# 
   820  0E23                     	;# 
   821  0E24                     	;# 
   822  0E25                     	;# 
   823  0E26                     	;# 
   824  0E27                     	;# 
   825  0E28                     	;# 
   826  0E29                     	;# 
   827  0E2A                     	;# 
   828  0E2B                     	;# 
   829  0E2C                     	;# 
   830  0E2D                     	;# 
   831  0E2E                     	;# 
   832  0E90                     	;# 
   833  0E91                     	;# 
   834  0E92                     	;# 
   835  0E94                     	;# 
   836  0E95                     	;# 
   837  0E9C                     	;# 
   838  0E9D                     	;# 
   839  0E9E                     	;# 
   840  0E9F                     	;# 
   841  0EA0                     	;# 
   842  0EA1                     	;# 
   843  0EA2                     	;# 
   844  0EA3                     	;# 
   845  0EA4                     	;# 
   846  0EA5                     	;# 
   847  0EA6                     	;# 
   848  0EA7                     	;# 
   849  0F0F                     	;# 
   850  0F10                     	;# 
   851  0F11                     	;# 
   852  0F12                     	;# 
   853  0F13                     	;# 
   854  0F14                     	;# 
   855  0F15                     	;# 
   856  0F16                     	;# 
   857  0F17                     	;# 
   858  0F18                     	;# 
   859  0F19                     	;# 
   860  0F1A                     	;# 
   861  0F1B                     	;# 
   862  0F1C                     	;# 
   863  0F1D                     	;# 
   864  0F1E                     	;# 
   865  0F1F                     	;# 
   866  0F20                     	;# 
   867  0F21                     	;# 
   868  0F22                     	;# 
   869  0F23                     	;# 
   870  0F24                     	;# 
   871  0F25                     	;# 
   872  0F26                     	;# 
   873  0F27                     	;# 
   874  0F28                     	;# 
   875  0F29                     	;# 
   876  0F2A                     	;# 
   877  0F2B                     	;# 
   878  0F2C                     	;# 
   879  0F2D                     	;# 
   880  0F2E                     	;# 
   881  0F2F                     	;# 
   882  0F30                     	;# 
   883  0F31                     	;# 
   884  0F32                     	;# 
   885  0F33                     	;# 
   886  0F34                     	;# 
   887  0F35                     	;# 
   888  0F36                     	;# 
   889  0F37                     	;# 
   890  0FE4                     	;# 
   891  0FE5                     	;# 
   892  0FE6                     	;# 
   893  0FE7                     	;# 
   894  0FE8                     	;# 
   895  0FE9                     	;# 
   896  0FEA                     	;# 
   897  0FEB                     	;# 
   898  0FED                     	;# 
   899  0FEE                     	;# 
   900  0FEF                     	;# 
   901  0000                     	;# 
   902  0001                     	;# 
   903  0002                     	;# 
   904  0003                     	;# 
   905  0004                     	;# 
   906  0005                     	;# 
   907  0006                     	;# 
   908  0007                     	;# 
   909  0008                     	;# 
   910  0009                     	;# 
   911  000A                     	;# 
   912  000B                     	;# 
   913  000C                     	;# 
   914  000D                     	;# 
   915  000E                     	;# 
   916  0010                     	;# 
   917  0011                     	;# 
   918  0012                     	;# 
   919  0013                     	;# 
   920  0014                     	;# 
   921  0015                     	;# 
   922  0016                     	;# 
   923  0016                     	;# 
   924  0017                     	;# 
   925  0018                     	;# 
   926  0019                     	;# 
   927  001A                     	;# 
   928  001A                     	;# 
   929  001B                     	;# 
   930  001B                     	;# 
   931  001C                     	;# 
   932  001D                     	;# 
   933  001E                     	;# 
   934  001F                     	;# 
   935  008C                     	;# 
   936  008D                     	;# 
   937  008E                     	;# 
   938  0090                     	;# 
   939  0091                     	;# 
   940  0092                     	;# 
   941  0093                     	;# 
   942  0094                     	;# 
   943  0095                     	;# 
   944  0096                     	;# 
   945  0098                     	;# 
   946  0099                     	;# 
   947  009A                     	;# 
   948  009B                     	;# 
   949  009B                     	;# 
   950  009C                     	;# 
   951  009D                     	;# 
   952  009E                     	;# 
   953  009F                     	;# 
   954  010C                     	;# 
   955  010D                     	;# 
   956  010E                     	;# 
   957  0111                     	;# 
   958  0112                     	;# 
   959  0113                     	;# 
   960  0114                     	;# 
   961  0115                     	;# 
   962  0116                     	;# 
   963  0117                     	;# 
   964  0118                     	;# 
   965  0119                     	;# 
   966  011C                     	;# 
   967  018C                     	;# 
   968  018D                     	;# 
   969  018E                     	;# 
   970  0191                     	;# 
   971  0191                     	;# 
   972  0192                     	;# 
   973  0193                     	;# 
   974  0193                     	;# 
   975  0194                     	;# 
   976  0195                     	;# 
   977  0196                     	;# 
   978  0197                     	;# 
   979  0199                     	;# 
   980  0199                     	;# 
   981  0199                     	;# 
   982  019A                     	;# 
   983  019A                     	;# 
   984  019A                     	;# 
   985  019B                     	;# 
   986  019B                     	;# 
   987  019B                     	;# 
   988  019B                     	;# 
   989  019B                     	;# 
   990  019C                     	;# 
   991  019C                     	;# 
   992  019C                     	;# 
   993  019D                     	;# 
   994  019D                     	;# 
   995  019D                     	;# 
   996  019E                     	;# 
   997  019E                     	;# 
   998  019E                     	;# 
   999  019F                     	;# 
  1000  019F                     	;# 
  1001  019F                     	;# 
  1002  019F                     	;# 
  1003  019F                     	;# 
  1004  020C                     	;# 
  1005  020D                     	;# 
  1006  020E                     	;# 
  1007  0211                     	;# 
  1008  0211                     	;# 
  1009  0212                     	;# 
  1010  0212                     	;# 
  1011  0213                     	;# 
  1012  0213                     	;# 
  1013  0214                     	;# 
  1014  0214                     	;# 
  1015  0215                     	;# 
  1016  0215                     	;# 
  1017  0215                     	;# 
  1018  0215                     	;# 
  1019  0216                     	;# 
  1020  0216                     	;# 
  1021  0217                     	;# 
  1022  0217                     	;# 
  1023  028C                     	;# 
  1024  028D                     	;# 
  1025  028E                     	;# 
  1026  0291                     	;# 
  1027  0291                     	;# 
  1028  0292                     	;# 
  1029  0293                     	;# 
  1030  0294                     	;# 
  1031  0298                     	;# 
  1032  0298                     	;# 
  1033  0299                     	;# 
  1034  029A                     	;# 
  1035  029B                     	;# 
  1036  029E                     	;# 
  1037  030C                     	;# 
  1038  030D                     	;# 
  1039  030E                     	;# 
  1040  038C                     	;# 
  1041  038D                     	;# 
  1042  038E                     	;# 
  1043  0391                     	;# 
  1044  0392                     	;# 
  1045  0393                     	;# 
  1046  0394                     	;# 
  1047  0395                     	;# 
  1048  0396                     	;# 
  1049  0397                     	;# 
  1050  0398                     	;# 
  1051  0399                     	;# 
  1052  040E                     	;# 
  1053  0413                     	;# 
  1054  0413                     	;# 
  1055  0414                     	;# 
  1056  0414                     	;# 
  1057  0415                     	;# 
  1058  0416                     	;# 
  1059  0417                     	;# 
  1060  0418                     	;# 
  1061  041A                     	;# 
  1062  041A                     	;# 
  1063  041B                     	;# 
  1064  041B                     	;# 
  1065  041C                     	;# 
  1066  041D                     	;# 
  1067  041E                     	;# 
  1068  041F                     	;# 
  1069  0493                     	;# 
  1070  0494                     	;# 
  1071  0495                     	;# 
  1072  0496                     	;# 
  1073  049A                     	;# 
  1074  049B                     	;# 
  1075  049C                     	;# 
  1076  049D                     	;# 
  1077  058C                     	;# 
  1078  058C                     	;# 
  1079  058D                     	;# 
  1080  058E                     	;# 
  1081  058E                     	;# 
  1082  058F                     	;# 
  1083  0590                     	;# 
  1084  0590                     	;# 
  1085  0591                     	;# 
  1086  0592                     	;# 
  1087  0592                     	;# 
  1088  0593                     	;# 
  1089  0594                     	;# 
  1090  0594                     	;# 
  1091  0595                     	;# 
  1092  0596                     	;# 
  1093  0596                     	;# 
  1094  0597                     	;# 
  1095  0598                     	;# 
  1096  0599                     	;# 
  1097  059A                     	;# 
  1098  059B                     	;# 
  1099  059B                     	;# 
  1100  059C                     	;# 
  1101  059D                     	;# 
  1102  060C                     	;# 
  1103  060C                     	;# 
  1104  060D                     	;# 
  1105  060E                     	;# 
  1106  060F                     	;# 
  1107  060F                     	;# 
  1108  0610                     	;# 
  1109  0611                     	;# 
  1110  0612                     	;# 
  1111  0613                     	;# 
  1112  0614                     	;# 
  1113  0617                     	;# 
  1114  0618                     	;# 
  1115  0619                     	;# 
  1116  061A                     	;# 
  1117  061B                     	;# 
  1118  061C                     	;# 
  1119  0691                     	;# 
  1120  0692                     	;# 
  1121  0693                     	;# 
  1122  0694                     	;# 
  1123  0695                     	;# 
  1124  0696                     	;# 
  1125  0697                     	;# 
  1126  0699                     	;# 
  1127  069A                     	;# 
  1128  0711                     	;# 
  1129  0712                     	;# 
  1130  0713                     	;# 
  1131  0714                     	;# 
  1132  0715                     	;# 
  1133  0718                     	;# 
  1134  0718                     	;# 
  1135  0719                     	;# 
  1136  071A                     	;# 
  1137  071A                     	;# 
  1138  071B                     	;# 
  1139  071C                     	;# 
  1140  071D                     	;# 
  1141  0791                     	;# 
  1142  0791                     	;# 
  1143  0792                     	;# 
  1144  0793                     	;# 
  1145  0793                     	;# 
  1146  0794                     	;# 
  1147  0795                     	;# 
  1148  0795                     	;# 
  1149  0796                     	;# 
  1150  0797                     	;# 
  1151  0797                     	;# 
  1152  0798                     	;# 
  1153  0799                     	;# 
  1154  079A                     	;# 
  1155  080C                     	;# 
  1156  080C                     	;# 
  1157  080D                     	;# 
  1158  080E                     	;# 
  1159  080E                     	;# 
  1160  080F                     	;# 
  1161  0810                     	;# 
  1162  0810                     	;# 
  1163  0811                     	;# 
  1164  0812                     	;# 
  1165  0812                     	;# 
  1166  0813                     	;# 
  1167  0814                     	;# 
  1168  0815                     	;# 
  1169  0816                     	;# 
  1170  0817                     	;# 
  1171  0818                     	;# 
  1172  0819                     	;# 
  1173  081A                     	;# 
  1174  081A                     	;# 
  1175  081B                     	;# 
  1176  081C                     	;# 
  1177  081C                     	;# 
  1178  081D                     	;# 
  1179  088C                     	;# 
  1180  088D                     	;# 
  1181  088E                     	;# 
  1182  088F                     	;# 
  1183  088F                     	;# 
  1184  0890                     	;# 
  1185  0891                     	;# 
  1186  0892                     	;# 
  1187  0893                     	;# 
  1188  0893                     	;# 
  1189  0894                     	;# 
  1190  0895                     	;# 
  1191  0896                     	;# 
  1192  0897                     	;# 
  1193  0897                     	;# 
  1194  0898                     	;# 
  1195  0899                     	;# 
  1196  0D8C                     	;# 
  1197  0D8C                     	;# 
  1198  0D8D                     	;# 
  1199  0D8E                     	;# 
  1200  0D8F                     	;# 
  1201  0D8F                     	;# 
  1202  0D90                     	;# 
  1203  0D91                     	;# 
  1204  0D92                     	;# 
  1205  0D92                     	;# 
  1206  0D93                     	;# 
  1207  0D94                     	;# 
  1208  0D95                     	;# 
  1209  0D95                     	;# 
  1210  0D96                     	;# 
  1211  0D97                     	;# 
  1212  0D98                     	;# 
  1213  0D99                     	;# 
  1214  0D9A                     	;# 
  1215  0D9B                     	;# 
  1216  0D9C                     	;# 
  1217  0D9D                     	;# 
  1218  0D9E                     	;# 
  1219  0D9E                     	;# 
  1220  0D9F                     	;# 
  1221  0DA0                     	;# 
  1222  0DA1                     	;# 
  1223  0DA1                     	;# 
  1224  0DA2                     	;# 
  1225  0DA3                     	;# 
  1226  0DA4                     	;# 
  1227  0DA4                     	;# 
  1228  0DA5                     	;# 
  1229  0DA6                     	;# 
  1230  0DA7                     	;# 
  1231  0DA7                     	;# 
  1232  0DA8                     	;# 
  1233  0DA9                     	;# 
  1234  0DAA                     	;# 
  1235  0DAB                     	;# 
  1236  0DAC                     	;# 
  1237  0DAD                     	;# 
  1238  0DAE                     	;# 
  1239  0DAF                     	;# 
  1240  0E0F                     	;# 
  1241  0E10                     	;# 
  1242  0E11                     	;# 
  1243  0E12                     	;# 
  1244  0E13                     	;# 
  1245  0E14                     	;# 
  1246  0E15                     	;# 
  1247  0E16                     	;# 
  1248  0E17                     	;# 
  1249  0E18                     	;# 
  1250  0E19                     	;# 
  1251  0E1A                     	;# 
  1252  0E1B                     	;# 
  1253  0E1C                     	;# 
  1254  0E1D                     	;# 
  1255  0E1E                     	;# 
  1256  0E1F                     	;# 
  1257  0E20                     	;# 
  1258  0E21                     	;# 
  1259  0E22                     	;# 
  1260  0E23                     	;# 
  1261  0E24                     	;# 
  1262  0E25                     	;# 
  1263  0E26                     	;# 
  1264  0E27                     	;# 
  1265  0E28                     	;# 
  1266  0E29                     	;# 
  1267  0E2A                     	;# 
  1268  0E2B                     	;# 
  1269  0E2C                     	;# 
  1270  0E2D                     	;# 
  1271  0E2E                     	;# 
  1272  0E90                     	;# 
  1273  0E91                     	;# 
  1274  0E92                     	;# 
  1275  0E94                     	;# 
  1276  0E95                     	;# 
  1277  0E9C                     	;# 
  1278  0E9D                     	;# 
  1279  0E9E                     	;# 
  1280  0E9F                     	;# 
  1281  0EA0                     	;# 
  1282  0EA1                     	;# 
  1283  0EA2                     	;# 
  1284  0EA3                     	;# 
  1285  0EA4                     	;# 
  1286  0EA5                     	;# 
  1287  0EA6                     	;# 
  1288  0EA7                     	;# 
  1289  0F0F                     	;# 
  1290  0F10                     	;# 
  1291  0F11                     	;# 
  1292  0F12                     	;# 
  1293  0F13                     	;# 
  1294  0F14                     	;# 
  1295  0F15                     	;# 
  1296  0F16                     	;# 
  1297  0F17                     	;# 
  1298  0F18                     	;# 
  1299  0F19                     	;# 
  1300  0F1A                     	;# 
  1301  0F1B                     	;# 
  1302  0F1C                     	;# 
  1303  0F1D                     	;# 
  1304  0F1E                     	;# 
  1305  0F1F                     	;# 
  1306  0F20                     	;# 
  1307  0F21                     	;# 
  1308  0F22                     	;# 
  1309  0F23                     	;# 
  1310  0F24                     	;# 
  1311  0F25                     	;# 
  1312  0F26                     	;# 
  1313  0F27                     	;# 
  1314  0F28                     	;# 
  1315  0F29                     	;# 
  1316  0F2A                     	;# 
  1317  0F2B                     	;# 
  1318  0F2C                     	;# 
  1319  0F2D                     	;# 
  1320  0F2E                     	;# 
  1321  0F2F                     	;# 
  1322  0F30                     	;# 
  1323  0F31                     	;# 
  1324  0F32                     	;# 
  1325  0F33                     	;# 
  1326  0F34                     	;# 
  1327  0F35                     	;# 
  1328  0F36                     	;# 
  1329  0F37                     	;# 
  1330  0FE4                     	;# 
  1331  0FE5                     	;# 
  1332  0FE6                     	;# 
  1333  0FE7                     	;# 
  1334  0FE8                     	;# 
  1335  0FE9                     	;# 
  1336  0FEA                     	;# 
  1337  0FEB                     	;# 
  1338  0FED                     	;# 
  1339  0FEE                     	;# 
  1340  0FEF                     	;# 
  1341  0000                     	;# 
  1342  0001                     	;# 
  1343  0002                     	;# 
  1344  0003                     	;# 
  1345  0004                     	;# 
  1346  0005                     	;# 
  1347  0006                     	;# 
  1348  0007                     	;# 
  1349  0008                     	;# 
  1350  0009                     	;# 
  1351  000A                     	;# 
  1352  000B                     	;# 
  1353  000C                     	;# 
  1354  000D                     	;# 
  1355  000E                     	;# 
  1356  0010                     	;# 
  1357  0011                     	;# 
  1358  0012                     	;# 
  1359  0013                     	;# 
  1360  0014                     	;# 
  1361  0015                     	;# 
  1362  0016                     	;# 
  1363  0016                     	;# 
  1364  0017                     	;# 
  1365  0018                     	;# 
  1366  0019                     	;# 
  1367  001A                     	;# 
  1368  001A                     	;# 
  1369  001B                     	;# 
  1370  001B                     	;# 
  1371  001C                     	;# 
  1372  001D                     	;# 
  1373  001E                     	;# 
  1374  001F                     	;# 
  1375  008C                     	;# 
  1376  008D                     	;# 
  1377  008E                     	;# 
  1378  0090                     	;# 
  1379  0091                     	;# 
  1380  0092                     	;# 
  1381  0093                     	;# 
  1382  0094                     	;# 
  1383  0095                     	;# 
  1384  0096                     	;# 
  1385  0098                     	;# 
  1386  0099                     	;# 
  1387  009A                     	;# 
  1388  009B                     	;# 
  1389  009B                     	;# 
  1390  009C                     	;# 
  1391  009D                     	;# 
  1392  009E                     	;# 
  1393  009F                     	;# 
  1394  010C                     	;# 
  1395  010D                     	;# 
  1396  010E                     	;# 
  1397  0111                     	;# 
  1398  0112                     	;# 
  1399  0113                     	;# 
  1400  0114                     	;# 
  1401  0115                     	;# 
  1402  0116                     	;# 
  1403  0117                     	;# 
  1404  0118                     	;# 
  1405  0119                     	;# 
  1406  011C                     	;# 
  1407  018C                     	;# 
  1408  018D                     	;# 
  1409  018E                     	;# 
  1410  0191                     	;# 
  1411  0191                     	;# 
  1412  0192                     	;# 
  1413  0193                     	;# 
  1414  0193                     	;# 
  1415  0194                     	;# 
  1416  0195                     	;# 
  1417  0196                     	;# 
  1418  0197                     	;# 
  1419  0199                     	;# 
  1420  0199                     	;# 
  1421  0199                     	;# 
  1422  019A                     	;# 
  1423  019A                     	;# 
  1424  019A                     	;# 
  1425  019B                     	;# 
  1426  019B                     	;# 
  1427  019B                     	;# 
  1428  019B                     	;# 
  1429  019B                     	;# 
  1430  019C                     	;# 
  1431  019C                     	;# 
  1432  019C                     	;# 
  1433  019D                     	;# 
  1434  019D                     	;# 
  1435  019D                     	;# 
  1436  019E                     	;# 
  1437  019E                     	;# 
  1438  019E                     	;# 
  1439  019F                     	;# 
  1440  019F                     	;# 
  1441  019F                     	;# 
  1442  019F                     	;# 
  1443  019F                     	;# 
  1444  020C                     	;# 
  1445  020D                     	;# 
  1446  020E                     	;# 
  1447  0211                     	;# 
  1448  0211                     	;# 
  1449  0212                     	;# 
  1450  0212                     	;# 
  1451  0213                     	;# 
  1452  0213                     	;# 
  1453  0214                     	;# 
  1454  0214                     	;# 
  1455  0215                     	;# 
  1456  0215                     	;# 
  1457  0215                     	;# 
  1458  0215                     	;# 
  1459  0216                     	;# 
  1460  0216                     	;# 
  1461  0217                     	;# 
  1462  0217                     	;# 
  1463  028C                     	;# 
  1464  028D                     	;# 
  1465  028E                     	;# 
  1466  0291                     	;# 
  1467  0291                     	;# 
  1468  0292                     	;# 
  1469  0293                     	;# 
  1470  0294                     	;# 
  1471  0298                     	;# 
  1472  0298                     	;# 
  1473  0299                     	;# 
  1474  029A                     	;# 
  1475  029B                     	;# 
  1476  029E                     	;# 
  1477  030C                     	;# 
  1478  030D                     	;# 
  1479  030E                     	;# 
  1480  038C                     	;# 
  1481  038D                     	;# 
  1482  038E                     	;# 
  1483  0391                     	;# 
  1484  0392                     	;# 
  1485  0393                     	;# 
  1486  0394                     	;# 
  1487  0395                     	;# 
  1488  0396                     	;# 
  1489  0397                     	;# 
  1490  0398                     	;# 
  1491  0399                     	;# 
  1492  040E                     	;# 
  1493  0413                     	;# 
  1494  0413                     	;# 
  1495  0414                     	;# 
  1496  0414                     	;# 
  1497  0415                     	;# 
  1498  0416                     	;# 
  1499  0417                     	;# 
  1500  0418                     	;# 
  1501  041A                     	;# 
  1502  041A                     	;# 
  1503  041B                     	;# 
  1504  041B                     	;# 
  1505  041C                     	;# 
  1506  041D                     	;# 
  1507  041E                     	;# 
  1508  041F                     	;# 
  1509  0493                     	;# 
  1510  0494                     	;# 
  1511  0495                     	;# 
  1512  0496                     	;# 
  1513  049A                     	;# 
  1514  049B                     	;# 
  1515  049C                     	;# 
  1516  049D                     	;# 
  1517  058C                     	;# 
  1518  058C                     	;# 
  1519  058D                     	;# 
  1520  058E                     	;# 
  1521  058E                     	;# 
  1522  058F                     	;# 
  1523  0590                     	;# 
  1524  0590                     	;# 
  1525  0591                     	;# 
  1526  0592                     	;# 
  1527  0592                     	;# 
  1528  0593                     	;# 
  1529  0594                     	;# 
  1530  0594                     	;# 
  1531  0595                     	;# 
  1532  0596                     	;# 
  1533  0596                     	;# 
  1534  0597                     	;# 
  1535  0598                     	;# 
  1536  0599                     	;# 
  1537  059A                     	;# 
  1538  059B                     	;# 
  1539  059B                     	;# 
  1540  059C                     	;# 
  1541  059D                     	;# 
  1542  060C                     	;# 
  1543  060C                     	;# 
  1544  060D                     	;# 
  1545  060E                     	;# 
  1546  060F                     	;# 
  1547  060F                     	;# 
  1548  0610                     	;# 
  1549  0611                     	;# 
  1550  0612                     	;# 
  1551  0613                     	;# 
  1552  0614                     	;# 
  1553  0617                     	;# 
  1554  0618                     	;# 
  1555  0619                     	;# 
  1556  061A                     	;# 
  1557  061B                     	;# 
  1558  061C                     	;# 
  1559  0691                     	;# 
  1560  0692                     	;# 
  1561  0693                     	;# 
  1562  0694                     	;# 
  1563  0695                     	;# 
  1564  0696                     	;# 
  1565  0697                     	;# 
  1566  0699                     	;# 
  1567  069A                     	;# 
  1568  0711                     	;# 
  1569  0712                     	;# 
  1570  0713                     	;# 
  1571  0714                     	;# 
  1572  0715                     	;# 
  1573  0718                     	;# 
  1574  0718                     	;# 
  1575  0719                     	;# 
  1576  071A                     	;# 
  1577  071A                     	;# 
  1578  071B                     	;# 
  1579  071C                     	;# 
  1580  071D                     	;# 
  1581  0791                     	;# 
  1582  0791                     	;# 
  1583  0792                     	;# 
  1584  0793                     	;# 
  1585  0793                     	;# 
  1586  0794                     	;# 
  1587  0795                     	;# 
  1588  0795                     	;# 
  1589  0796                     	;# 
  1590  0797                     	;# 
  1591  0797                     	;# 
  1592  0798                     	;# 
  1593  0799                     	;# 
  1594  079A                     	;# 
  1595  080C                     	;# 
  1596  080C                     	;# 
  1597  080D                     	;# 
  1598  080E                     	;# 
  1599  080E                     	;# 
  1600  080F                     	;# 
  1601  0810                     	;# 
  1602  0810                     	;# 
  1603  0811                     	;# 
  1604  0812                     	;# 
  1605  0812                     	;# 
  1606  0813                     	;# 
  1607  0814                     	;# 
  1608  0815                     	;# 
  1609  0816                     	;# 
  1610  0817                     	;# 
  1611  0818                     	;# 
  1612  0819                     	;# 
  1613  081A                     	;# 
  1614  081A                     	;# 
  1615  081B                     	;# 
  1616  081C                     	;# 
  1617  081C                     	;# 
  1618  081D                     	;# 
  1619  088C                     	;# 
  1620  088D                     	;# 
  1621  088E                     	;# 
  1622  088F                     	;# 
  1623  088F                     	;# 
  1624  0890                     	;# 
  1625  0891                     	;# 
  1626  0892                     	;# 
  1627  0893                     	;# 
  1628  0893                     	;# 
  1629  0894                     	;# 
  1630  0895                     	;# 
  1631  0896                     	;# 
  1632  0897                     	;# 
  1633  0897                     	;# 
  1634  0898                     	;# 
  1635  0899                     	;# 
  1636  0D8C                     	;# 
  1637  0D8C                     	;# 
  1638  0D8D                     	;# 
  1639  0D8E                     	;# 
  1640  0D8F                     	;# 
  1641  0D8F                     	;# 
  1642  0D90                     	;# 
  1643  0D91                     	;# 
  1644  0D92                     	;# 
  1645  0D92                     	;# 
  1646  0D93                     	;# 
  1647  0D94                     	;# 
  1648  0D95                     	;# 
  1649  0D95                     	;# 
  1650  0D96                     	;# 
  1651  0D97                     	;# 
  1652  0D98                     	;# 
  1653  0D99                     	;# 
  1654  0D9A                     	;# 
  1655  0D9B                     	;# 
  1656  0D9C                     	;# 
  1657  0D9D                     	;# 
  1658  0D9E                     	;# 
  1659  0D9E                     	;# 
  1660  0D9F                     	;# 
  1661  0DA0                     	;# 
  1662  0DA1                     	;# 
  1663  0DA1                     	;# 
  1664  0DA2                     	;# 
  1665  0DA3                     	;# 
  1666  0DA4                     	;# 
  1667  0DA4                     	;# 
  1668  0DA5                     	;# 
  1669  0DA6                     	;# 
  1670  0DA7                     	;# 
  1671  0DA7                     	;# 
  1672  0DA8                     	;# 
  1673  0DA9                     	;# 
  1674  0DAA                     	;# 
  1675  0DAB                     	;# 
  1676  0DAC                     	;# 
  1677  0DAD                     	;# 
  1678  0DAE                     	;# 
  1679  0DAF                     	;# 
  1680  0E0F                     	;# 
  1681  0E10                     	;# 
  1682  0E11                     	;# 
  1683  0E12                     	;# 
  1684  0E13                     	;# 
  1685  0E14                     	;# 
  1686  0E15                     	;# 
  1687  0E16                     	;# 
  1688  0E17                     	;# 
  1689  0E18                     	;# 
  1690  0E19                     	;# 
  1691  0E1A                     	;# 
  1692  0E1B                     	;# 
  1693  0E1C                     	;# 
  1694  0E1D                     	;# 
  1695  0E1E                     	;# 
  1696  0E1F                     	;# 
  1697  0E20                     	;# 
  1698  0E21                     	;# 
  1699  0E22                     	;# 
  1700  0E23                     	;# 
  1701  0E24                     	;# 
  1702  0E25                     	;# 
  1703  0E26                     	;# 
  1704  0E27                     	;# 
  1705  0E28                     	;# 
  1706  0E29                     	;# 
  1707  0E2A                     	;# 
  1708  0E2B                     	;# 
  1709  0E2C                     	;# 
  1710  0E2D                     	;# 
  1711  0E2E                     	;# 
  1712  0E90                     	;# 
  1713  0E91                     	;# 
  1714  0E92                     	;# 
  1715  0E94                     	;# 
  1716  0E95                     	;# 
  1717  0E9C                     	;# 
  1718  0E9D                     	;# 
  1719  0E9E                     	;# 
  1720  0E9F                     	;# 
  1721  0EA0                     	;# 
  1722  0EA1                     	;# 
  1723  0EA2                     	;# 
  1724  0EA3                     	;# 
  1725  0EA4                     	;# 
  1726  0EA5                     	;# 
  1727  0EA6                     	;# 
  1728  0EA7                     	;# 
  1729  0F0F                     	;# 
  1730  0F10                     	;# 
  1731  0F11                     	;# 
  1732  0F12                     	;# 
  1733  0F13                     	;# 
  1734  0F14                     	;# 
  1735  0F15                     	;# 
  1736  0F16                     	;# 
  1737  0F17                     	;# 
  1738  0F18                     	;# 
  1739  0F19                     	;# 
  1740  0F1A                     	;# 
  1741  0F1B                     	;# 
  1742  0F1C                     	;# 
  1743  0F1D                     	;# 
  1744  0F1E                     	;# 
  1745  0F1F                     	;# 
  1746  0F20                     	;# 
  1747  0F21                     	;# 
  1748  0F22                     	;# 
  1749  0F23                     	;# 
  1750  0F24                     	;# 
  1751  0F25                     	;# 
  1752  0F26                     	;# 
  1753  0F27                     	;# 
  1754  0F28                     	;# 
  1755  0F29                     	;# 
  1756  0F2A                     	;# 
  1757  0F2B                     	;# 
  1758  0F2C                     	;# 
  1759  0F2D                     	;# 
  1760  0F2E                     	;# 
  1761  0F2F                     	;# 
  1762  0F30                     	;# 
  1763  0F31                     	;# 
  1764  0F32                     	;# 
  1765  0F33                     	;# 
  1766  0F34                     	;# 
  1767  0F35                     	;# 
  1768  0F36                     	;# 
  1769  0F37                     	;# 
  1770  0FE4                     	;# 
  1771  0FE5                     	;# 
  1772  0FE6                     	;# 
  1773  0FE7                     	;# 
  1774  0FE8                     	;# 
  1775  0FE9                     	;# 
  1776  0FEA                     	;# 
  1777  0FEB                     	;# 
  1778  0FED                     	;# 
  1779  0FEE                     	;# 
  1780  0FEF                     	;# 
  1781  0000                     	;# 
  1782  0001                     	;# 
  1783  0002                     	;# 
  1784  0003                     	;# 
  1785  0004                     	;# 
  1786  0005                     	;# 
  1787  0006                     	;# 
  1788  0007                     	;# 
  1789  0008                     	;# 
  1790  0009                     	;# 
  1791  000A                     	;# 
  1792  000B                     	;# 
  1793  000C                     	;# 
  1794  000D                     	;# 
  1795  000E                     	;# 
  1796  0010                     	;# 
  1797  0011                     	;# 
  1798  0012                     	;# 
  1799  0013                     	;# 
  1800  0014                     	;# 
  1801  0015                     	;# 
  1802  0016                     	;# 
  1803  0016                     	;# 
  1804  0017                     	;# 
  1805  0018                     	;# 
  1806  0019                     	;# 
  1807  001A                     	;# 
  1808  001A                     	;# 
  1809  001B                     	;# 
  1810  001B                     	;# 
  1811  001C                     	;# 
  1812  001D                     	;# 
  1813  001E                     	;# 
  1814  001F                     	;# 
  1815  008C                     	;# 
  1816  008D                     	;# 
  1817  008E                     	;# 
  1818  0090                     	;# 
  1819  0091                     	;# 
  1820  0092                     	;# 
  1821  0093                     	;# 
  1822  0094                     	;# 
  1823  0095                     	;# 
  1824  0096                     	;# 
  1825  0098                     	;# 
  1826  0099                     	;# 
  1827  009A                     	;# 
  1828  009B                     	;# 
  1829  009B                     	;# 
  1830  009C                     	;# 
  1831  009D                     	;# 
  1832  009E                     	;# 
  1833  009F                     	;# 
  1834  010C                     	;# 
  1835  010D                     	;# 
  1836  010E                     	;# 
  1837  0111                     	;# 
  1838  0112                     	;# 
  1839  0113                     	;# 
  1840  0114                     	;# 
  1841  0115                     	;# 
  1842  0116                     	;# 
  1843  0117                     	;# 
  1844  0118                     	;# 
  1845  0119                     	;# 
  1846  011C                     	;# 
  1847  018C                     	;# 
  1848  018D                     	;# 
  1849  018E                     	;# 
  1850  0191                     	;# 
  1851  0191                     	;# 
  1852  0192                     	;# 
  1853  0193                     	;# 
  1854  0193                     	;# 
  1855  0194                     	;# 
  1856  0195                     	;# 
  1857  0196                     	;# 
  1858  0197                     	;# 
  1859  0199                     	;# 
  1860  0199                     	;# 
  1861  0199                     	;# 
  1862  019A                     	;# 
  1863  019A                     	;# 
  1864  019A                     	;# 
  1865  019B                     	;# 
  1866  019B                     	;# 
  1867  019B                     	;# 
  1868  019B                     	;# 
  1869  019B                     	;# 
  1870  019C                     	;# 
  1871  019C                     	;# 
  1872  019C                     	;# 
  1873  019D                     	;# 
  1874  019D                     	;# 
  1875  019D                     	;# 
  1876  019E                     	;# 
  1877  019E                     	;# 
  1878  019E                     	;# 
  1879  019F                     	;# 
  1880  019F                     	;# 
  1881  019F                     	;# 
  1882  019F                     	;# 
  1883  019F                     	;# 
  1884  020C                     	;# 
  1885  020D                     	;# 
  1886  020E                     	;# 
  1887  0211                     	;# 
  1888  0211                     	;# 
  1889  0212                     	;# 
  1890  0212                     	;# 
  1891  0213                     	;# 
  1892  0213                     	;# 
  1893  0214                     	;# 
  1894  0214                     	;# 
  1895  0215                     	;# 
  1896  0215                     	;# 
  1897  0215                     	;# 
  1898  0215                     	;# 
  1899  0216                     	;# 
  1900  0216                     	;# 
  1901  0217                     	;# 
  1902  0217                     	;# 
  1903  028C                     	;# 
  1904  028D                     	;# 
  1905  028E                     	;# 
  1906  0291                     	;# 
  1907  0291                     	;# 
  1908  0292                     	;# 
  1909  0293                     	;# 
  1910  0294                     	;# 
  1911  0298                     	;# 
  1912  0298                     	;# 
  1913  0299                     	;# 
  1914  029A                     	;# 
  1915  029B                     	;# 
  1916  029E                     	;# 
  1917  030C                     	;# 
  1918  030D                     	;# 
  1919  030E                     	;# 
  1920  038C                     	;# 
  1921  038D                     	;# 
  1922  038E                     	;# 
  1923  0391                     	;# 
  1924  0392                     	;# 
  1925  0393                     	;# 
  1926  0394                     	;# 
  1927  0395                     	;# 
  1928  0396                     	;# 
  1929  0397                     	;# 
  1930  0398                     	;# 
  1931  0399                     	;# 
  1932  040E                     	;# 
  1933  0413                     	;# 
  1934  0413                     	;# 
  1935  0414                     	;# 
  1936  0414                     	;# 
  1937  0415                     	;# 
  1938  0416                     	;# 
  1939  0417                     	;# 
  1940  0418                     	;# 
  1941  041A                     	;# 
  1942  041A                     	;# 
  1943  041B                     	;# 
  1944  041B                     	;# 
  1945  041C                     	;# 
  1946  041D                     	;# 
  1947  041E                     	;# 
  1948  041F                     	;# 
  1949  0493                     	;# 
  1950  0494                     	;# 
  1951  0495                     	;# 
  1952  0496                     	;# 
  1953  049A                     	;# 
  1954  049B                     	;# 
  1955  049C                     	;# 
  1956  049D                     	;# 
  1957  058C                     	;# 
  1958  058C                     	;# 
  1959  058D                     	;# 
  1960  058E                     	;# 
  1961  058E                     	;# 
  1962  058F                     	;# 
  1963  0590                     	;# 
  1964  0590                     	;# 
  1965  0591                     	;# 
  1966  0592                     	;# 
  1967  0592                     	;# 
  1968  0593                     	;# 
  1969  0594                     	;# 
  1970  0594                     	;# 
  1971  0595                     	;# 
  1972  0596                     	;# 
  1973  0596                     	;# 
  1974  0597                     	;# 
  1975  0598                     	;# 
  1976  0599                     	;# 
  1977  059A                     	;# 
  1978  059B                     	;# 
  1979  059B                     	;# 
  1980  059C                     	;# 
  1981  059D                     	;# 
  1982  060C                     	;# 
  1983  060C                     	;# 
  1984  060D                     	;# 
  1985  060E                     	;# 
  1986  060F                     	;# 
  1987  060F                     	;# 
  1988  0610                     	;# 
  1989  0611                     	;# 
  1990  0612                     	;# 
  1991  0613                     	;# 
  1992  0614                     	;# 
  1993  0617                     	;# 
  1994  0618                     	;# 
  1995  0619                     	;# 
  1996  061A                     	;# 
  1997  061B                     	;# 
  1998  061C                     	;# 
  1999  0691                     	;# 
  2000  0692                     	;# 
  2001  0693                     	;# 
  2002  0694                     	;# 
  2003  0695                     	;# 
  2004  0696                     	;# 
  2005  0697                     	;# 
  2006  0699                     	;# 
  2007  069A                     	;# 
  2008  0711                     	;# 
  2009  0712                     	;# 
  2010  0713                     	;# 
  2011  0714                     	;# 
  2012  0715                     	;# 
  2013  0718                     	;# 
  2014  0718                     	;# 
  2015  0719                     	;# 
  2016  071A                     	;# 
  2017  071A                     	;# 
  2018  071B                     	;# 
  2019  071C                     	;# 
  2020  071D                     	;# 
  2021  0791                     	;# 
  2022  0791                     	;# 
  2023  0792                     	;# 
  2024  0793                     	;# 
  2025  0793                     	;# 
  2026  0794                     	;# 
  2027  0795                     	;# 
  2028  0795                     	;# 
  2029  0796                     	;# 
  2030  0797                     	;# 
  2031  0797                     	;# 
  2032  0798                     	;# 
  2033  0799                     	;# 
  2034  079A                     	;# 
  2035  080C                     	;# 
  2036  080C                     	;# 
  2037  080D                     	;# 
  2038  080E                     	;# 
  2039  080E                     	;# 
  2040  080F                     	;# 
  2041  0810                     	;# 
  2042  0810                     	;# 
  2043  0811                     	;# 
  2044  0812                     	;# 
  2045  0812                     	;# 
  2046  0813                     	;# 
  2047  0814                     	;# 
  2048  0815                     	;# 
  2049  0816                     	;# 
  2050  0817                     	;# 
  2051  0818                     	;# 
  2052  0819                     	;# 
  2053  081A                     	;# 
  2054  081A                     	;# 
  2055  081B                     	;# 
  2056  081C                     	;# 
  2057  081C                     	;# 
  2058  081D                     	;# 
  2059  088C                     	;# 
  2060  088D                     	;# 
  2061  088E                     	;# 
  2062  088F                     	;# 
  2063  088F                     	;# 
  2064  0890                     	;# 
  2065  0891                     	;# 
  2066  0892                     	;# 
  2067  0893                     	;# 
  2068  0893                     	;# 
  2069  0894                     	;# 
  2070  0895                     	;# 
  2071  0896                     	;# 
  2072  0897                     	;# 
  2073  0897                     	;# 
  2074  0898                     	;# 
  2075  0899                     	;# 
  2076  0D8C                     	;# 
  2077  0D8C                     	;# 
  2078  0D8D                     	;# 
  2079  0D8E                     	;# 
  2080  0D8F                     	;# 
  2081  0D8F                     	;# 
  2082  0D90                     	;# 
  2083  0D91                     	;# 
  2084  0D92                     	;# 
  2085  0D92                     	;# 
  2086  0D93                     	;# 
  2087  0D94                     	;# 
  2088  0D95                     	;# 
  2089  0D95                     	;# 
  2090  0D96                     	;# 
  2091  0D97                     	;# 
  2092  0D98                     	;# 
  2093  0D99                     	;# 
  2094  0D9A                     	;# 
  2095  0D9B                     	;# 
  2096  0D9C                     	;# 
  2097  0D9D                     	;# 
  2098  0D9E                     	;# 
  2099  0D9E                     	;# 
  2100  0D9F                     	;# 
  2101  0DA0                     	;# 
  2102  0DA1                     	;# 
  2103  0DA1                     	;# 
  2104  0DA2                     	;# 
  2105  0DA3                     	;# 
  2106  0DA4                     	;# 
  2107  0DA4                     	;# 
  2108  0DA5                     	;# 
  2109  0DA6                     	;# 
  2110  0DA7                     	;# 
  2111  0DA7                     	;# 
  2112  0DA8                     	;# 
  2113  0DA9                     	;# 
  2114  0DAA                     	;# 
  2115  0DAB                     	;# 
  2116  0DAC                     	;# 
  2117  0DAD                     	;# 
  2118  0DAE                     	;# 
  2119  0DAF                     	;# 
  2120  0E0F                     	;# 
  2121  0E10                     	;# 
  2122  0E11                     	;# 
  2123  0E12                     	;# 
  2124  0E13                     	;# 
  2125  0E14                     	;# 
  2126  0E15                     	;# 
  2127  0E16                     	;# 
  2128  0E17                     	;# 
  2129  0E18                     	;# 
  2130  0E19                     	;# 
  2131  0E1A                     	;# 
  2132  0E1B                     	;# 
  2133  0E1C                     	;# 
  2134  0E1D                     	;# 
  2135  0E1E                     	;# 
  2136  0E1F                     	;# 
  2137  0E20                     	;# 
  2138  0E21                     	;# 
  2139  0E22                     	;# 
  2140  0E23                     	;# 
  2141  0E24                     	;# 
  2142  0E25                     	;# 
  2143  0E26                     	;# 
  2144  0E27                     	;# 
  2145  0E28                     	;# 
  2146  0E29                     	;# 
  2147  0E2A                     	;# 
  2148  0E2B                     	;# 
  2149  0E2C                     	;# 
  2150  0E2D                     	;# 
  2151  0E2E                     	;# 
  2152  0E90                     	;# 
  2153  0E91                     	;# 
  2154  0E92                     	;# 
  2155  0E94                     	;# 
  2156  0E95                     	;# 
  2157  0E9C                     	;# 
  2158  0E9D                     	;# 
  2159  0E9E                     	;# 
  2160  0E9F                     	;# 
  2161  0EA0                     	;# 
  2162  0EA1                     	;# 
  2163  0EA2                     	;# 
  2164  0EA3                     	;# 
  2165  0EA4                     	;# 
  2166  0EA5                     	;# 
  2167  0EA6                     	;# 
  2168  0EA7                     	;# 
  2169  0F0F                     	;# 
  2170  0F10                     	;# 
  2171  0F11                     	;# 
  2172  0F12                     	;# 
  2173  0F13                     	;# 
  2174  0F14                     	;# 
  2175  0F15                     	;# 
  2176  0F16                     	;# 
  2177  0F17                     	;# 
  2178  0F18                     	;# 
  2179  0F19                     	;# 
  2180  0F1A                     	;# 
  2181  0F1B                     	;# 
  2182  0F1C                     	;# 
  2183  0F1D                     	;# 
  2184  0F1E                     	;# 
  2185  0F1F                     	;# 
  2186  0F20                     	;# 
  2187  0F21                     	;# 
  2188  0F22                     	;# 
  2189  0F23                     	;# 
  2190  0F24                     	;# 
  2191  0F25                     	;# 
  2192  0F26                     	;# 
  2193  0F27                     	;# 
  2194  0F28                     	;# 
  2195  0F29                     	;# 
  2196  0F2A                     	;# 
  2197  0F2B                     	;# 
  2198  0F2C                     	;# 
  2199  0F2D                     	;# 
  2200  0F2E                     	;# 
  2201  0F2F                     	;# 
  2202  0F30                     	;# 
  2203  0F31                     	;# 
  2204  0F32                     	;# 
  2205  0F33                     	;# 
  2206  0F34                     	;# 
  2207  0F35                     	;# 
  2208  0F36                     	;# 
  2209  0F37                     	;# 
  2210  0FE4                     	;# 
  2211  0FE5                     	;# 
  2212  0FE6                     	;# 
  2213  0FE7                     	;# 
  2214  0FE8                     	;# 
  2215  0FE9                     	;# 
  2216  0FEA                     	;# 
  2217  0FEB                     	;# 
  2218  0FED                     	;# 
  2219  0FEE                     	;# 
  2220  0FEF                     	;# 
  2221                           
  2222                           	psect	stringtext
  2223  0800                     __pstringtext:	
  2224  0800                     _dpowers:	
  2225  0800  3401               	retlw	1
  2226  0801  3400               	retlw	0
  2227  0802  340A               	retlw	10
  2228  0803  3400               	retlw	0
  2229  0804  3464               	retlw	100
  2230  0805  3400               	retlw	0
  2231  0806  34E8               	retlw	232
  2232  0807  3403               	retlw	3
  2233  0808  3410               	retlw	16
  2234  0809  3427               	retlw	39
  2235  080A                     __end_of_dpowers:	
  2236  0010                     _PIR1bits	set	16
  2237  005F                     _GIE	set	95
  2238  009D                     _ADCON0	set	157
  2239  009D                     _ADCON0bits	set	157
  2240  009E                     _ADCON1	set	158
  2241  009F                     _ADCON2	set	159
  2242  009C                     _ADRESH	set	156
  2243  009B                     _ADRESL	set	155
  2244  0095                     _OPTION_REGbits	set	149
  2245  0099                     _OSCCON	set	153
  2246  009A                     _OSCSTAT	set	154
  2247  0098                     _OSCTUNE	set	152
  2248  008C                     _TRISA	set	140
  2249  008D                     _TRISB	set	141
  2250  008E                     _TRISC	set	142
  2251  010C                     _LATA	set	268
  2252  010D                     _LATB	set	269
  2253  010E                     _LATC	set	270
  2254  018C                     _ANSELA	set	396
  2255  018D                     _ANSELB	set	397
  2256  018E                     _ANSELC	set	398
  2257  019F                     _BAUD1CON	set	415
  2258  0199                     _RC1REG	set	409
  2259  019D                     _RC1STA	set	413
  2260  019D                     _RC1STAbits	set	413
  2261  019C                     _SPBRGH	set	412
  2262  019B                     _SPBRGL	set	411
  2263  019A                     _TX1REG	set	410
  2264  019E                     _TX1STA	set	414
  2265  020D                     _WPUB	set	525
  2266  020E                     _WPUC	set	526
  2267  0E0F                     _PPSLOCK	set	3599
  2268  0E0F                     _PPSLOCKbits	set	3599
  2269  0E24                     _RXPPS	set	3620
  2270  0E9F                     _RB7PPS	set	3743
  2271  080A                     STR_1:	
  2272  080A  3450               	retlw	80	;'P'
  2273  080B  3461               	retlw	97	;'a'
  2274  080C  346E               	retlw	110	;'n'
  2275  080D  3474               	retlw	116	;'t'
  2276  080E  3465               	retlw	101	;'e'
  2277  080F  3472               	retlw	114	;'r'
  2278  0810  3469               	retlw	105	;'i'
  2279  0811  3474               	retlw	116	;'t'
  2280  0812  3461               	retlw	97	;'a'
  2281  0813  3420               	retlw	32	;' '
  2282  0814  3442               	retlw	66	;'B'
  2283  0815  3472               	retlw	114	;'r'
  2284  0816  3461               	retlw	97	;'a'
  2285  0817  346D               	retlw	109	;'m'
  2286  0818  3469               	retlw	105	;'i'
  2287  0819  3464               	retlw	100	;'d'
  2288  081A  346F               	retlw	111	;'o'
  2289  081B  3420               	retlw	32	;' '
  2290  081C  3461               	retlw	97	;'a'
  2291  081D  3470               	retlw	112	;'p'
  2292  081E  3475               	retlw	117	;'u'
  2293  081F  3472               	retlw	114	;'r'
  2294  0820  3461               	retlw	97	;'a'
  2295  0821  3420               	retlw	32	;' '
  2296  0822  3476               	retlw	118	;'v'
  2297  0823  3465               	retlw	101	;'e'
  2298  0824  346E               	retlw	110	;'n'
  2299  0825  3421               	retlw	33	;'!'
  2300  0826  3421               	retlw	33	;'!'
  2301  0827  3421               	retlw	33	;'!'
  2302  0828  3421               	retlw	33	;'!'
  2303  0829  3421               	retlw	33	;'!'
  2304  082A  3420               	retlw	32	;' '
  2305  082B  343D               	retlw	61	;'='
  2306  082C  3420               	retlw	32	;' '
  2307  082D  3425               	retlw	37	;'%'
  2308  082E  3464               	retlw	100	;'d'
  2309  082F  340D               	retlw	13
  2310  0830  340A               	retlw	10
  2311  0831  3400               	retlw	0
  2312                           
  2313                           ; #config settings
  2314  0000                     
  2315                           	psect	cinit
  2316  07FD                     start_initialization:	
  2317  07FD                     __initialization:	
  2318  07FD                     end_of_initialization:	
  2319                           ;End of C runtime variable initialization code
  2320                           
  2321  07FD                     __end_of__initialization:	
  2322  07FD  0020               	movlb	0
  2323  07FE  3186  2E8D         	ljmp	_main	;jump to C main() function
  2324                           
  2325                           	psect	cstackCOMMON
  2326  0070                     __pcstackCOMMON:	
  2327  0070                     ?_OSCILLATOR_Initialize:	
  2328  0070                     ??_OSCILLATOR_Initialize:	
  2329                           ; 0 bytes @ 0x0
  2330                           
  2331  0070                     ?_EUSART_Initialize:	
  2332                           ; 0 bytes @ 0x0
  2333                           
  2334  0070                     ??_EUSART_Initialize:	
  2335                           ; 0 bytes @ 0x0
  2336                           
  2337  0070                     ?_EUSART_Write:	
  2338                           ; 0 bytes @ 0x0
  2339                           
  2340  0070                     ??_EUSART_Write:	
  2341                           ; 0 bytes @ 0x0
  2342                           
  2343  0070                     ?_putch:	
  2344                           ; 0 bytes @ 0x0
  2345                           
  2346  0070                     ?_ADC1_Initialize:	
  2347                           ; 0 bytes @ 0x0
  2348                           
  2349  0070                     ??_ADC1_Initialize:	
  2350                           ; 0 bytes @ 0x0
  2351                           
  2352  0070                     ?_PIN_MANAGER_Initialize:	
  2353                           ; 0 bytes @ 0x0
  2354                           
  2355  0070                     ??_PIN_MANAGER_Initialize:	
  2356                           ; 0 bytes @ 0x0
  2357                           
  2358  0070                     ?_SYSTEM_Initialize:	
  2359                           ; 0 bytes @ 0x0
  2360                           
  2361  0070                     ?_main:	
  2362                           ; 0 bytes @ 0x0
  2363                           
  2364  0070                     ?_ADC1_GetConversion:	
  2365                           ; 0 bytes @ 0x0
  2366                           
  2367  0070                     ?___lwdiv:	
  2368                           ; 2 bytes @ 0x0
  2369                           
  2370  0070                     EUSART_Write@txData:	
  2371                           ; 2 bytes @ 0x0
  2372                           
  2373  0070                     PIN_MANAGER_Initialize@state:	
  2374                           ; 1 bytes @ 0x0
  2375                           
  2376  0070                     ___lwdiv@divisor:	
  2377                           ; 1 bytes @ 0x0
  2378                           
  2379                           
  2380                           ; 2 bytes @ 0x0
  2381  0070                     	ds	1
  2382  0071                     ??_putch:	
  2383  0071                     ??_SYSTEM_Initialize:	
  2384                           ; 0 bytes @ 0x1
  2385                           
  2386  0071                     putch@txData:	
  2387                           ; 0 bytes @ 0x1
  2388                           
  2389                           
  2390                           ; 1 bytes @ 0x1
  2391  0071                     	ds	1
  2392  0072                     ??_ADC1_GetConversion:	
  2393  0072                     ___lwdiv@dividend:	
  2394                           ; 0 bytes @ 0x2
  2395                           
  2396                           
  2397                           ; 2 bytes @ 0x2
  2398  0072                     	ds	1
  2399  0073                     ADC1_GetConversion@channel:	
  2400                           
  2401                           ; 1 bytes @ 0x3
  2402  0073                     	ds	1
  2403  0074                     ??___lwdiv:	
  2404                           
  2405                           ; 0 bytes @ 0x4
  2406  0074                     	ds	1
  2407  0075                     ___lwdiv@quotient:	
  2408                           
  2409                           ; 2 bytes @ 0x5
  2410  0075                     	ds	2
  2411  0077                     ___lwdiv@counter:	
  2412                           
  2413                           ; 1 bytes @ 0x7
  2414  0077                     	ds	1
  2415  0078                     ?___lwmod:	
  2416  0078                     ___lwmod@divisor:	
  2417                           ; 2 bytes @ 0x8
  2418                           
  2419                           
  2420                           ; 2 bytes @ 0x8
  2421  0078                     	ds	2
  2422  007A                     ___lwmod@dividend:	
  2423                           
  2424                           ; 2 bytes @ 0xA
  2425  007A                     	ds	2
  2426  007C                     ??___lwmod:	
  2427                           
  2428                           ; 0 bytes @ 0xC
  2429  007C                     	ds	1
  2430  007D                     ___lwmod@counter:	
  2431                           
  2432                           ; 1 bytes @ 0xD
  2433  007D                     	ds	1
  2434                           
  2435                           	psect	cstackBANK0
  2436  0020                     __pcstackBANK0:	
  2437  0020                     ?_printf:	
  2438  0020                     printf@f:	
  2439                           ; 2 bytes @ 0x0
  2440                           
  2441                           
  2442                           ; 2 bytes @ 0x0
  2443  0020                     	ds	4
  2444  0024                     ??_printf:	
  2445                           
  2446                           ; 0 bytes @ 0x4
  2447  0024                     	ds	4
  2448  0028                     printf@ap:	
  2449                           
  2450                           ; 1 bytes @ 0x8
  2451  0028                     	ds	1
  2452  0029                     printf@flag:	
  2453                           
  2454                           ; 1 bytes @ 0x9
  2455  0029                     	ds	1
  2456  002A                     printf@prec:	
  2457                           
  2458                           ; 1 bytes @ 0xA
  2459  002A                     	ds	1
  2460  002B                     printf@val:	
  2461                           
  2462                           ; 2 bytes @ 0xB
  2463  002B                     	ds	2
  2464  002D                     printf@c:	
  2465                           
  2466                           ; 1 bytes @ 0xD
  2467  002D                     	ds	1
  2468  002E                     ??_main:	
  2469                           
  2470                           ; 0 bytes @ 0xE
  2471  002E                     	ds	2
  2472                           
  2473                           	psect	maintext
  2474  068D                     __pmaintext:	
  2475 ;;
  2476 ;;Main: autosize = 0, tempsize = 2, incstack = 0, save=0
  2477 ;;
  2478 ;; *************** function _main *****************
  2479 ;; Defined at:
  2480 ;;		line 53 in file "main.c"
  2481 ;; Parameters:    Size  Location     Type
  2482 ;;		None
  2483 ;; Auto vars:     Size  Location     Type
  2484 ;;		None
  2485 ;; Return value:  Size  Location     Type
  2486 ;;		None               void
  2487 ;; Registers used:
  2488 ;;		wreg, fsr0l, fsr0h, fsr1l, fsr1h, status,2, status,0, pclath, cstack
  2489 ;; Tracked objects:
  2490 ;;		On entry : B1F/0
  2491 ;;		On exit  : 0/0
  2492 ;;		Unchanged: 0/0
  2493 ;; Data sizes:     COMMON   BANK0   BANK1   BANK2   BANK3   BANK4   BANK5   BANK6   BANK7   BANK8   BANK9  BANK10  BANK1
      +1  BANK12
  2494 ;;      Params:         0       0       0       0       0       0       0       0       0       0       0       0       
      +0       0
  2495 ;;      Locals:         0       0       0       0       0       0       0       0       0       0       0       0       
      +0       0
  2496 ;;      Temps:          0       2       0       0       0       0       0       0       0       0       0       0       
      +0       0
  2497 ;;      Totals:         0       2       0       0       0       0       0       0       0       0       0       0       
      +0       0
  2498 ;;Total ram usage:        2 bytes
  2499 ;; Hardware stack levels required when called:    3
  2500 ;; This function calls:
  2501 ;;		_ADC1_GetConversion
  2502 ;;		_SYSTEM_Initialize
  2503 ;;		_printf
  2504 ;; This function is called by:
  2505 ;;		Startup code after reset
  2506 ;; This function uses a non-reentrant model
  2507 ;;
  2508                           
  2509                           
  2510                           ;psect for function _main
  2511  068D                     _main:	
  2512                           
  2513                           ;main.c: 55: SYSTEM_Initialize();
  2514                           
  2515                           ;incstack = 0
  2516                           ; Regs used in _main: [wreg-fsr1h+status,2+status,0+pclath+cstack]
  2517  068D  3186  266C  3186   	fcall	_SYSTEM_Initialize
  2518  0690                     l867:	
  2519                           ;main.c: 72: while (1) {
  2520                           
  2521                           
  2522                           ;main.c: 74: printf("Panterita Bramido apura ven!!!!! = %d\r\n", ADC1_GetConversion(POT1
      +                          ));
  2523  0690  300A               	movlw	low (STR_1| (0+32768))
  2524  0691  0020               	movlb	0	; select bank0
  2525  0692  00A0               	movwf	printf@f
  2526  0693  3088               	movlw	high (STR_1| (0+32768))
  2527  0694  00A1               	movwf	printf@f+1
  2528  0695  3004               	movlw	4
  2529  0696  3186  2678  3186   	fcall	_ADC1_GetConversion
  2530  0699  0871               	movf	?_ADC1_GetConversion+1,w
  2531  069A  0020               	movlb	0	; select bank0
  2532  069B  00A3               	movwf	?_printf+3
  2533  069C  0870               	movf	?_ADC1_GetConversion,w
  2534  069D  00A2               	movwf	?_printf+2
  2535  069E  3187  2746  3186   	fcall	_printf
  2536                           
  2537                           ;main.c: 75: _delay((unsigned long)((500)*(500000/4000.0)));
  2538  06A1  3052               	movlw	82
  2539  06A2  0020               	movlb	0	; select bank0
  2540  06A3  00AF               	movwf	??_main+1
  2541  06A4  3029               	movlw	41
  2542  06A5  00AE               	movwf	??_main
  2543  06A6                     u517:	
  2544  06A6  0BAE               	decfsz	??_main,f
  2545  06A7  2EA6               	goto	u517
  2546  06A8  0BAF               	decfsz	??_main+1,f
  2547  06A9  2EA6               	goto	u517
  2548  06AA  3200               	nop2
  2549  06AB  2E90               	goto	l867
  2550  06AC                     __end_of_main:	
  2551                           
  2552                           	psect	text1
  2553  0746                     __ptext1:	
  2554 ;; *************** function _printf *****************
  2555 ;; Defined at:
  2556 ;;		line 464 in file "C:\Program Files (x86)\Microchip\xc8\v1.35\sources\common\doprnt.c"
  2557 ;; Parameters:    Size  Location     Type
  2558 ;;  f               2    0[BANK0 ] PTR const unsigned char 
  2559 ;;		 -> STR_1(40), 
  2560 ;; Auto vars:     Size  Location     Type
  2561 ;;  tmpval          4    0        struct .
  2562 ;;  val             2   11[BANK0 ] unsigned int 
  2563 ;;  cp              2    0        PTR const unsigned char 
  2564 ;;  len             2    0        unsigned int 
  2565 ;;  c               1   13[BANK0 ] char 
  2566 ;;  prec            1   10[BANK0 ] char 
  2567 ;;  flag            1    9[BANK0 ] unsigned char 
  2568 ;;  ap              1    8[BANK0 ] PTR void [1]
  2569 ;;		 -> ?_printf(2), 
  2570 ;; Return value:  Size  Location     Type
  2571 ;;                  2    0[BANK0 ] int 
  2572 ;; Registers used:
  2573 ;;		wreg, fsr0l, fsr0h, fsr1l, fsr1h, status,2, status,0, pclath, cstack
  2574 ;; Tracked objects:
  2575 ;;		On entry : 0/0
  2576 ;;		On exit  : 0/0
  2577 ;;		Unchanged: 0/0
  2578 ;; Data sizes:     COMMON   BANK0   BANK1   BANK2   BANK3   BANK4   BANK5   BANK6   BANK7   BANK8   BANK9  BANK10  BANK1
      +1  BANK12
  2579 ;;      Params:         0       4       0       0       0       0       0       0       0       0       0       0       
      +0       0
  2580 ;;      Locals:         0       6       0       0       0       0       0       0       0       0       0       0       
      +0       0
  2581 ;;      Temps:          0       4       0       0       0       0       0       0       0       0       0       0       
      +0       0
  2582 ;;      Totals:         0      14       0       0       0       0       0       0       0       0       0       0       
      +0       0
  2583 ;;Total ram usage:       14 bytes
  2584 ;; Hardware stack levels used:    1
  2585 ;; Hardware stack levels required when called:    2
  2586 ;; This function calls:
  2587 ;;		___lwdiv
  2588 ;;		___lwmod
  2589 ;;		_putch
  2590 ;; This function is called by:
  2591 ;;		_main
  2592 ;; This function uses a non-reentrant model
  2593 ;;
  2594                           
  2595                           
  2596                           ;psect for function _printf
  2597  0746                     _printf:	
  2598                           
  2599                           ;doprnt.c: 466: va_list ap;
  2600                           ;doprnt.c: 499: signed char c;
  2601                           ;doprnt.c: 506: signed char prec;
  2602                           ;doprnt.c: 508: unsigned char flag;
  2603                           ;doprnt.c: 523: union {
  2604                           ;doprnt.c: 524: unsigned long vd;
  2605                           ;doprnt.c: 525: double integ;
  2606                           ;doprnt.c: 526: } tmpval;
  2607                           ;doprnt.c: 528: unsigned int val;
  2608                           ;doprnt.c: 529: unsigned len;
  2609                           ;doprnt.c: 530: const char * cp;
  2610                           ;doprnt.c: 533: *ap = __va_start();
  2611                           
  2612                           ;incstack = 0
  2613                           ; Regs used in _printf: [wreg-fsr1h+status,2+status,0+pclath+cstack]
  2614  0746  3022               	movlw	(low ((?_printf| 0+2)))& (0+255)
  2615  0747  0020               	movlb	0	; select bank0
  2616  0748  00A4               	movwf	??_printf
  2617  0749  0824               	movf	??_printf,w
  2618  074A  00A8               	movwf	printf@ap
  2619  074B                     l863:	
  2620                           ;doprnt.c: 536: while(c = *f++) {
  2621                           
  2622  074B  0020               	movlb	0	; select bank0
  2623  074C  0821               	movf	printf@f+1,w
  2624  074D  00A5               	movwf	??_printf+1
  2625  074E  0820               	movf	printf@f,w
  2626  074F  00A4               	movwf	??_printf
  2627  0750  0AA0               	incf	printf@f,f
  2628  0751  1903               	skipnz
  2629  0752  0AA1               	incf	printf@f+1,f
  2630  0753  0824               	movf	??_printf,w
  2631  0754  0084               	movwf	4
  2632  0755  0825               	movf	??_printf+1,w
  2633  0756  0085               	movwf	5
  2634  0757  0800               	movf	0,w	;code access
  2635  0758  00A6               	movwf	??_printf+2
  2636  0759  0826               	movf	??_printf+2,w
  2637  075A  00AD               	movwf	printf@c
  2638  075B  082D               	movf	printf@c,w
  2639  075C  1903               	btfsc	3,2
  2640  075D  0008               	return
  2641                           
  2642                           ;doprnt.c: 538: if(c != '%')
  2643  075E  3025               	movlw	37
  2644  075F  062D               	xorwf	printf@c,w
  2645  0760  1903               	btfsc	3,2
  2646  0761  2F67               	goto	l823
  2647                           
  2648                           ;doprnt.c: 540: {
  2649                           ;doprnt.c: 541: (putch(c) );
  2650  0762  082D               	movf	printf@c,w
  2651  0763  3186  2645  3187   	fcall	_putch
  2652                           
  2653                           ;doprnt.c: 542: continue;
  2654  0766  2F4B               	goto	l863
  2655  0767                     l823:	
  2656                           
  2657                           ;doprnt.c: 543: }
  2658                           ;doprnt.c: 548: flag = 0;
  2659  0767  0020               	movlb	0	; select bank0
  2660  0768  01A9               	clrf	printf@flag
  2661                           
  2662                           ;doprnt.c: 822: }
  2663                           
  2664                           ;doprnt.c: 813: continue;
  2665                           
  2666                           ;doprnt.c: 802: default:
  2667                           
  2668                           ;doprnt.c: 698: case 'i':
  2669                           ;doprnt.c: 699: break;
  2670                           
  2671                           ;doprnt.c: 697: case 'd':
  2672                           
  2673                           ;doprnt.c: 638: goto alldone;
  2674                           
  2675                           ;doprnt.c: 637: case 0:
  2676                           
  2677                           ;doprnt.c: 635: switch(c = *f++) {
  2678  0769  0821               	movf	printf@f+1,w
  2679  076A  00A5               	movwf	??_printf+1
  2680  076B  0820               	movf	printf@f,w
  2681  076C  00A4               	movwf	??_printf
  2682  076D  0AA0               	incf	printf@f,f
  2683  076E  1903               	skipnz
  2684  076F  0AA1               	incf	printf@f+1,f
  2685  0770  0824               	movf	??_printf,w
  2686  0771  0084               	movwf	4
  2687  0772  0825               	movf	??_printf+1,w
  2688  0773  0085               	movwf	5
  2689  0774  0800               	movf	0,w	;code access
  2690  0775  00AD               	movwf	printf@c
  2691                           
  2692                           ; Switch size 1, requested type "space"
  2693                           ; Number of cases is 3, Range of values is 0 to 105
  2694                           ; switch strategies available:
  2695                           ; Name         Instructions Cycles
  2696                           ; simple_byte           10     6 (average)
  2697                           ; direct_byte          218     6 (fixed)
  2698                           ; jumptable            260     6 (fixed)
  2699                           ;	Chosen strategy is simple_byte
  2700  0776  3A00               	xorlw	0	; case 0
  2701  0777  1903               	skipnz
  2702  0778  2FFC               	goto	l173
  2703  0779  3A64               	xorlw	100	; case 100
  2704  077A  1903               	skipnz
  2705  077B  2F80               	goto	l829
  2706  077C  3A0D               	xorlw	13	; case 105
  2707  077D  1903               	skipnz
  2708  077E  2F80               	goto	l829
  2709  077F  2F4B               	goto	l863
  2710  0780                     l829:	
  2711                           
  2712                           ;doprnt.c: 1253: {
  2713                           ;doprnt.c: 1259: val = (int)(*(int *)__va_arg((*(int **)ap), (int)0));
  2714  0780  0828               	movf	printf@ap,w
  2715  0781  0086               	movwf	6
  2716  0782  0187               	clrf	7
  2717  0783  3F40               	moviw [0]fsr1
  2718  0784  00AB               	movwf	printf@val
  2719  0785  3F41               	moviw [1]fsr1
  2720  0786  00AC               	movwf	printf@val+1
  2721  0787  3002               	movlw	2
  2722  0788  00A4               	movwf	??_printf
  2723  0789  0824               	movf	??_printf,w
  2724  078A  07A8               	addwf	printf@ap,f
  2725                           
  2726                           ;doprnt.c: 1261: if((int)val < 0) {
  2727  078B  1FAC               	btfss	printf@val+1,7
  2728  078C  2F96               	goto	l839
  2729                           
  2730                           ;doprnt.c: 1262: flag |= 0x03;
  2731  078D  3003               	movlw	3
  2732  078E  00A4               	movwf	??_printf
  2733  078F  0824               	movf	??_printf,w
  2734  0790  04A9               	iorwf	printf@flag,f
  2735                           
  2736                           ;doprnt.c: 1263: val = -val;
  2737  0791  09AB               	comf	printf@val,f
  2738  0792  09AC               	comf	printf@val+1,f
  2739  0793  0AAB               	incf	printf@val,f
  2740  0794  1903               	skipnz
  2741  0795  0AAC               	incf	printf@val+1,f
  2742  0796                     l839:	
  2743                           
  2744                           ;doprnt.c: 1264: }
  2745                           ;doprnt.c: 1266: }
  2746                           ;doprnt.c: 1305: for(c = 1 ; c != sizeof dpowers/sizeof dpowers[0] ; c++)
  2747  0796  01AD               	clrf	printf@c
  2748  0797  0AAD               	incf	printf@c,f
  2749  0798  3005               	movlw	5
  2750  0799  062D               	xorwf	printf@c,w
  2751  079A  1903               	btfsc	3,2
  2752  079B  2FBB               	goto	l851
  2753  079C                     l845:	
  2754                           
  2755                           ;doprnt.c: 1306: if(val < dpowers[c])
  2756  079C  082D               	movf	printf@c,w
  2757  079D  00A4               	movwf	??_printf
  2758  079E  01A5               	clrf	??_printf+1
  2759  079F  35A4               	lslf	??_printf,f
  2760  07A0  0DA5               	rlf	??_printf+1,f
  2761  07A1  3000               	movlw	low (_dpowers| (0+32768))
  2762  07A2  0724               	addwf	??_printf,w
  2763  07A3  0084               	movwf	4
  2764  07A4  3088               	movlw	high (_dpowers| (0+32768))
  2765  07A5  3D25               	addwfc	??_printf+1,w
  2766  07A6  0085               	movwf	5
  2767  07A7  3F00               	moviw [0]fsr0
  2768  07A8  00A6               	movwf	??_printf+2
  2769  07A9  3F01               	moviw [1]fsr0
  2770  07AA  00A7               	movwf	??_printf+3
  2771  07AB  0827               	movf	??_printf+3,w
  2772  07AC  022C               	subwf	printf@val+1,w
  2773  07AD  1D03               	skipz
  2774  07AE  2FB1               	goto	u465
  2775  07AF  0826               	movf	??_printf+2,w
  2776  07B0  022B               	subwf	printf@val,w
  2777  07B1                     u465:	
  2778  07B1  1C03               	btfss	3,0
  2779  07B2  2FBB               	goto	l851
  2780                           
  2781                           ;doprnt.c: 1307: break;
  2782  07B3  3001               	movlw	1
  2783  07B4  00A4               	movwf	??_printf
  2784  07B5  0824               	movf	??_printf,w
  2785  07B6  07AD               	addwf	printf@c,f
  2786  07B7  3005               	movlw	5
  2787  07B8  062D               	xorwf	printf@c,w
  2788  07B9  1D03               	btfss	3,2
  2789  07BA  2F9C               	goto	l845
  2790  07BB                     l851:	
  2791                           
  2792                           ;doprnt.c: 1422: {
  2793                           ;doprnt.c: 1438: if(flag & 0x03)
  2794  07BB  0829               	movf	printf@flag,w
  2795  07BC  3903               	andlw	3
  2796  07BD  1903               	btfsc	3,2
  2797  07BE  2FC3               	goto	l855
  2798                           
  2799                           ;doprnt.c: 1439: (putch('-') );
  2800  07BF  302D               	movlw	45
  2801  07C0  3186  2645  3187   	fcall	_putch
  2802  07C3                     l855:	
  2803                           
  2804                           ;doprnt.c: 1469: }
  2805                           ;doprnt.c: 1472: prec = c;
  2806  07C3  0020               	movlb	0	; select bank0
  2807  07C4  082D               	movf	printf@c,w
  2808  07C5  00A4               	movwf	??_printf
  2809  07C6  0824               	movf	??_printf,w
  2810  07C7  00AA               	movwf	printf@prec
  2811  07C8                     l861:	
  2812                           ;doprnt.c: 1474: while(prec--) {
  2813                           
  2814  07C8  30FF               	movlw	255
  2815  07C9  0020               	movlb	0	; select bank0
  2816  07CA  00A4               	movwf	??_printf
  2817  07CB  0824               	movf	??_printf,w
  2818  07CC  07AA               	addwf	printf@prec,f
  2819  07CD  0A2A               	incf	printf@prec,w
  2820  07CE  1903               	btfsc	3,2
  2821  07CF  2F4B               	goto	l863
  2822                           
  2823                           ;doprnt.c: 1478: {
  2824                           ;doprnt.c: 1489: c = (val / dpowers[prec]) % 10 + '0';
  2825  07D0  300A               	movlw	10
  2826  07D1  00F8               	movwf	___lwmod@divisor
  2827  07D2  3000               	movlw	0
  2828  07D3  00F9               	movwf	___lwmod@divisor+1
  2829  07D4  082A               	movf	printf@prec,w
  2830  07D5  00A4               	movwf	??_printf
  2831  07D6  01A5               	clrf	??_printf+1
  2832  07D7  35A4               	lslf	??_printf,f
  2833  07D8  0DA5               	rlf	??_printf+1,f
  2834  07D9  3000               	movlw	low (_dpowers| (0+32768))
  2835  07DA  0724               	addwf	??_printf,w
  2836  07DB  0084               	movwf	4
  2837  07DC  3088               	movlw	high (_dpowers| (0+32768))
  2838  07DD  3D25               	addwfc	??_printf+1,w
  2839  07DE  0085               	movwf	5
  2840  07DF  3F00               	moviw [0]fsr0
  2841  07E0  00F0               	movwf	___lwdiv@divisor
  2842  07E1  3F01               	moviw [1]fsr0
  2843  07E2  00F1               	movwf	___lwdiv@divisor+1
  2844  07E3  082C               	movf	printf@val+1,w
  2845  07E4  00F3               	movwf	___lwdiv@dividend+1
  2846  07E5  082B               	movf	printf@val,w
  2847  07E6  00F2               	movwf	___lwdiv@dividend
  2848  07E7  3186  26D8  3187   	fcall	___lwdiv
  2849  07EA  0871               	movf	?___lwdiv+1,w
  2850  07EB  00FB               	movwf	___lwmod@dividend+1
  2851  07EC  0870               	movf	?___lwdiv,w
  2852  07ED  00FA               	movwf	___lwmod@dividend
  2853  07EE  3186  26AC  3187   	fcall	___lwmod
  2854  07F1  0878               	movf	?___lwmod,w
  2855  07F2  3E30               	addlw	48
  2856  07F3  0020               	movlb	0	; select bank0
  2857  07F4  00A6               	movwf	??_printf+2
  2858  07F5  0826               	movf	??_printf+2,w
  2859  07F6  00AD               	movwf	printf@c
  2860                           
  2861                           ;doprnt.c: 1523: }
  2862                           ;doprnt.c: 1524: (putch(c) );
  2863  07F7  082D               	movf	printf@c,w
  2864  07F8  3186  2645  3187   	fcall	_putch
  2865  07FB  2FC8               	goto	l861
  2866  07FC                     l173:	
  2867                           ;doprnt.c: 1540: return 0;
  2868                           ;	Return value of _printf is never used
  2869                           
  2870                           ;doprnt.c: 1525: }
  2871                           ;doprnt.c: 1533: }
  2872                           ;doprnt.c: 1535: alldone:
  2873                           
  2874  07FC  0008               	return
  2875  07FD                     __end_of_printf:	
  2876                           
  2877                           	psect	text2
  2878  0645                     __ptext2:	
  2879 ;; *************** function _putch *****************
  2880 ;; Defined at:
  2881 ;;		line 102 in file "mcc_generated_files/eusart.c"
  2882 ;; Parameters:    Size  Location     Type
  2883 ;;  txData          1    wreg     unsigned char 
  2884 ;; Auto vars:     Size  Location     Type
  2885 ;;  txData          1    1[COMMON] unsigned char 
  2886 ;; Return value:  Size  Location     Type
  2887 ;;		None               void
  2888 ;; Registers used:
  2889 ;;		wreg, status,2, status,0, pclath, cstack
  2890 ;; Tracked objects:
  2891 ;;		On entry : 0/0
  2892 ;;		On exit  : 0/0
  2893 ;;		Unchanged: 0/0
  2894 ;; Data sizes:     COMMON   BANK0   BANK1   BANK2   BANK3   BANK4   BANK5   BANK6   BANK7   BANK8   BANK9  BANK10  BANK1
      +1  BANK12
  2895 ;;      Params:         0       0       0       0       0       0       0       0       0       0       0       0       
      +0       0
  2896 ;;      Locals:         1       0       0       0       0       0       0       0       0       0       0       0       
      +0       0
  2897 ;;      Temps:          0       0       0       0       0       0       0       0       0       0       0       0       
      +0       0
  2898 ;;      Totals:         1       0       0       0       0       0       0       0       0       0       0       0       
      +0       0
  2899 ;;Total ram usage:        1 bytes
  2900 ;; Hardware stack levels used:    1
  2901 ;; Hardware stack levels required when called:    1
  2902 ;; This function calls:
  2903 ;;		_EUSART_Write
  2904 ;; This function is called by:
  2905 ;;		_printf
  2906 ;; This function uses a non-reentrant model
  2907 ;;
  2908                           
  2909                           
  2910                           ;psect for function _putch
  2911  0645                     _putch:	
  2912                           
  2913                           ;incstack = 0
  2914                           ; Regs used in _putch: [wreg+status,2+status,0+pclath+cstack]
  2915                           ;putch@txData stored from wreg
  2916  0645  00F1               	movwf	putch@txData
  2917                           
  2918                           ;eusart.c: 103: EUSART_Write(txData);
  2919  0646  0871               	movf	putch@txData,w
  2920  0647  3186  2650         	fcall	_EUSART_Write
  2921  0649  0008               	return
  2922  064A                     __end_of_putch:	
  2923                           
  2924                           	psect	text3
  2925  0650                     __ptext3:	
  2926 ;; *************** function _EUSART_Write *****************
  2927 ;; Defined at:
  2928 ;;		line 91 in file "mcc_generated_files/eusart.c"
  2929 ;; Parameters:    Size  Location     Type
  2930 ;;  txData          1    wreg     unsigned char 
  2931 ;; Auto vars:     Size  Location     Type
  2932 ;;  txData          1    0[COMMON] unsigned char 
  2933 ;; Return value:  Size  Location     Type
  2934 ;;		None               void
  2935 ;; Registers used:
  2936 ;;		wreg
  2937 ;; Tracked objects:
  2938 ;;		On entry : 0/0
  2939 ;;		On exit  : 0/0
  2940 ;;		Unchanged: 0/0
  2941 ;; Data sizes:     COMMON   BANK0   BANK1   BANK2   BANK3   BANK4   BANK5   BANK6   BANK7   BANK8   BANK9  BANK10  BANK1
      +1  BANK12
  2942 ;;      Params:         0       0       0       0       0       0       0       0       0       0       0       0       
      +0       0
  2943 ;;      Locals:         1       0       0       0       0       0       0       0       0       0       0       0       
      +0       0
  2944 ;;      Temps:          0       0       0       0       0       0       0       0       0       0       0       0       
      +0       0
  2945 ;;      Totals:         1       0       0       0       0       0       0       0       0       0       0       0       
      +0       0
  2946 ;;Total ram usage:        1 bytes
  2947 ;; Hardware stack levels used:    1
  2948 ;; This function calls:
  2949 ;;		Nothing
  2950 ;; This function is called by:
  2951 ;;		_putch
  2952 ;; This function uses a non-reentrant model
  2953 ;;
  2954                           
  2955                           
  2956                           ;psect for function _EUSART_Write
  2957  0650                     _EUSART_Write:	
  2958                           
  2959                           ;incstack = 0
  2960                           ; Regs used in _EUSART_Write: [wreg]
  2961                           ;EUSART_Write@txData stored from wreg
  2962  0650  00F0               	movwf	EUSART_Write@txData
  2963  0651                     l31:	
  2964                           ;eusart.c: 92: while (0 == PIR1bits.TXIF) {
  2965                           
  2966  0651  0020               	movlb	0	; select bank0
  2967  0652  1E10               	btfss	16,4	;volatile
  2968  0653  2E51               	goto	l31
  2969                           
  2970                           ;eusart.c: 93: }
  2971                           ;eusart.c: 95: TX1REG = txData;
  2972  0654  0870               	movf	EUSART_Write@txData,w
  2973  0655  0023               	movlb	3	; select bank3
  2974  0656  009A               	movwf	26	;volatile
  2975  0657  0008               	return
  2976  0658                     __end_of_EUSART_Write:	
  2977                           
  2978                           	psect	text4
  2979  06AC                     __ptext4:	
  2980 ;; *************** function ___lwmod *****************
  2981 ;; Defined at:
  2982 ;;		line 6 in file "C:\Program Files (x86)\Microchip\xc8\v1.35\sources\common\lwmod.c"
  2983 ;; Parameters:    Size  Location     Type
  2984 ;;  divisor         2    8[COMMON] unsigned int 
  2985 ;;  dividend        2   10[COMMON] unsigned int 
  2986 ;; Auto vars:     Size  Location     Type
  2987 ;;  counter         1   13[COMMON] unsigned char 
  2988 ;; Return value:  Size  Location     Type
  2989 ;;                  2    8[COMMON] unsigned int 
  2990 ;; Registers used:
  2991 ;;		wreg, status,2, status,0
  2992 ;; Tracked objects:
  2993 ;;		On entry : 0/0
  2994 ;;		On exit  : 0/0
  2995 ;;		Unchanged: 0/0
  2996 ;; Data sizes:     COMMON   BANK0   BANK1   BANK2   BANK3   BANK4   BANK5   BANK6   BANK7   BANK8   BANK9  BANK10  BANK1
      +1  BANK12
  2997 ;;      Params:         4       0       0       0       0       0       0       0       0       0       0       0       
      +0       0
  2998 ;;      Locals:         1       0       0       0       0       0       0       0       0       0       0       0       
      +0       0
  2999 ;;      Temps:          1       0       0       0       0       0       0       0       0       0       0       0       
      +0       0
  3000 ;;      Totals:         6       0       0       0       0       0       0       0       0       0       0       0       
      +0       0
  3001 ;;Total ram usage:        6 bytes
  3002 ;; Hardware stack levels used:    1
  3003 ;; This function calls:
  3004 ;;		Nothing
  3005 ;; This function is called by:
  3006 ;;		_printf
  3007 ;; This function uses a non-reentrant model
  3008 ;;
  3009                           
  3010                           
  3011                           ;psect for function ___lwmod
  3012  06AC                     ___lwmod:	
  3013                           
  3014                           ;incstack = 0
  3015                           ; Regs used in ___lwmod: [wreg+status,2+status,0]
  3016  06AC  0878               	movf	___lwmod@divisor,w
  3017  06AD  0479               	iorwf	___lwmod@divisor+1,w
  3018  06AE  1903               	btfsc	3,2
  3019  06AF  2ED3               	goto	l801
  3020  06B0  01FD               	clrf	___lwmod@counter
  3021  06B1  0AFD               	incf	___lwmod@counter,f
  3022  06B2                     l791:	
  3023  06B2  1BF9               	btfsc	___lwmod@divisor+1,7
  3024  06B3  2EBE               	goto	l793
  3025  06B4  3001               	movlw	1
  3026  06B5                     u375:	
  3027  06B5  35F8               	lslf	___lwmod@divisor,f
  3028  06B6  0DF9               	rlf	___lwmod@divisor+1,f
  3029  06B7  0B89               	decfsz	9,f
  3030  06B8  2EB5               	goto	u375
  3031  06B9  3001               	movlw	1
  3032  06BA  00FC               	movwf	??___lwmod
  3033  06BB  087C               	movf	??___lwmod,w
  3034  06BC  07FD               	addwf	___lwmod@counter,f
  3035  06BD  2EB2               	goto	l791
  3036  06BE                     l793:	
  3037  06BE  0879               	movf	___lwmod@divisor+1,w
  3038  06BF  027B               	subwf	___lwmod@dividend+1,w
  3039  06C0  1D03               	skipz
  3040  06C1  2EC4               	goto	u395
  3041  06C2  0878               	movf	___lwmod@divisor,w
  3042  06C3  027A               	subwf	___lwmod@dividend,w
  3043  06C4                     u395:	
  3044  06C4  1C03               	skipc
  3045  06C5  2ECA               	goto	l797
  3046  06C6  0878               	movf	___lwmod@divisor,w
  3047  06C7  02FA               	subwf	___lwmod@dividend,f
  3048  06C8  0879               	movf	___lwmod@divisor+1,w
  3049  06C9  3BFB               	subwfb	___lwmod@dividend+1,f
  3050  06CA                     l797:	
  3051  06CA  3001               	movlw	1
  3052  06CB                     u405:	
  3053  06CB  36F9               	lsrf	___lwmod@divisor+1,f
  3054  06CC  0CF8               	rrf	___lwmod@divisor,f
  3055  06CD  0B89               	decfsz	9,f
  3056  06CE  2ECB               	goto	u405
  3057  06CF  3001               	movlw	1
  3058  06D0  02FD               	subwf	___lwmod@counter,f
  3059  06D1  1D03               	btfss	3,2
  3060  06D2  2EBE               	goto	l793
  3061  06D3                     l801:	
  3062  06D3  087B               	movf	___lwmod@dividend+1,w
  3063  06D4  00F9               	movwf	?___lwmod+1
  3064  06D5  087A               	movf	___lwmod@dividend,w
  3065  06D6  00F8               	movwf	?___lwmod
  3066  06D7  0008               	return
  3067  06D8                     __end_of___lwmod:	
  3068                           
  3069                           	psect	text5
  3070  06D8                     __ptext5:	
  3071 ;; *************** function ___lwdiv *****************
  3072 ;; Defined at:
  3073 ;;		line 6 in file "C:\Program Files (x86)\Microchip\xc8\v1.35\sources\common\lwdiv.c"
  3074 ;; Parameters:    Size  Location     Type
  3075 ;;  divisor         2    0[COMMON] unsigned int 
  3076 ;;  dividend        2    2[COMMON] unsigned int 
  3077 ;; Auto vars:     Size  Location     Type
  3078 ;;  quotient        2    5[COMMON] unsigned int 
  3079 ;;  counter         1    7[COMMON] unsigned char 
  3080 ;; Return value:  Size  Location     Type
  3081 ;;                  2    0[COMMON] unsigned int 
  3082 ;; Registers used:
  3083 ;;		wreg, status,2, status,0
  3084 ;; Tracked objects:
  3085 ;;		On entry : 0/0
  3086 ;;		On exit  : 0/0
  3087 ;;		Unchanged: 0/0
  3088 ;; Data sizes:     COMMON   BANK0   BANK1   BANK2   BANK3   BANK4   BANK5   BANK6   BANK7   BANK8   BANK9  BANK10  BANK1
      +1  BANK12
  3089 ;;      Params:         4       0       0       0       0       0       0       0       0       0       0       0       
      +0       0
  3090 ;;      Locals:         3       0       0       0       0       0       0       0       0       0       0       0       
      +0       0
  3091 ;;      Temps:          1       0       0       0       0       0       0       0       0       0       0       0       
      +0       0
  3092 ;;      Totals:         8       0       0       0       0       0       0       0       0       0       0       0       
      +0       0
  3093 ;;Total ram usage:        8 bytes
  3094 ;; Hardware stack levels used:    1
  3095 ;; This function calls:
  3096 ;;		Nothing
  3097 ;; This function is called by:
  3098 ;;		_printf
  3099 ;; This function uses a non-reentrant model
  3100 ;;
  3101                           
  3102                           
  3103                           ;psect for function ___lwdiv
  3104  06D8                     ___lwdiv:	
  3105                           
  3106                           ;incstack = 0
  3107                           ; Regs used in ___lwdiv: [wreg+status,2+status,0]
  3108  06D8  01F5               	clrf	___lwdiv@quotient
  3109  06D9  01F6               	clrf	___lwdiv@quotient+1
  3110  06DA  0870               	movf	___lwdiv@divisor,w
  3111  06DB  0471               	iorwf	___lwdiv@divisor+1,w
  3112  06DC  1903               	btfsc	3,2
  3113  06DD  2F07               	goto	l779
  3114  06DE  01F7               	clrf	___lwdiv@counter
  3115  06DF  0AF7               	incf	___lwdiv@counter,f
  3116  06E0                     l767:	
  3117  06E0  1BF1               	btfsc	___lwdiv@divisor+1,7
  3118  06E1  2EEC               	goto	l769
  3119  06E2  3001               	movlw	1
  3120  06E3                     u305:	
  3121  06E3  35F0               	lslf	___lwdiv@divisor,f
  3122  06E4  0DF1               	rlf	___lwdiv@divisor+1,f
  3123  06E5  0B89               	decfsz	9,f
  3124  06E6  2EE3               	goto	u305
  3125  06E7  3001               	movlw	1
  3126  06E8  00F4               	movwf	??___lwdiv
  3127  06E9  0874               	movf	??___lwdiv,w
  3128  06EA  07F7               	addwf	___lwdiv@counter,f
  3129  06EB  2EE0               	goto	l767
  3130  06EC                     l769:	
  3131  06EC  3001               	movlw	1
  3132  06ED                     u325:	
  3133  06ED  35F5               	lslf	___lwdiv@quotient,f
  3134  06EE  0DF6               	rlf	___lwdiv@quotient+1,f
  3135  06EF  0B89               	decfsz	9,f
  3136  06F0  2EED               	goto	u325
  3137  06F1  0871               	movf	___lwdiv@divisor+1,w
  3138  06F2  0273               	subwf	___lwdiv@dividend+1,w
  3139  06F3  1D03               	skipz
  3140  06F4  2EF7               	goto	u335
  3141  06F5  0870               	movf	___lwdiv@divisor,w
  3142  06F6  0272               	subwf	___lwdiv@dividend,w
  3143  06F7                     u335:	
  3144  06F7  1C03               	skipc
  3145  06F8  2EFE               	goto	l775
  3146  06F9  0870               	movf	___lwdiv@divisor,w
  3147  06FA  02F2               	subwf	___lwdiv@dividend,f
  3148  06FB  0871               	movf	___lwdiv@divisor+1,w
  3149  06FC  3BF3               	subwfb	___lwdiv@dividend+1,f
  3150  06FD  1475               	bsf	___lwdiv@quotient,0
  3151  06FE                     l775:	
  3152  06FE  3001               	movlw	1
  3153  06FF                     u345:	
  3154  06FF  36F1               	lsrf	___lwdiv@divisor+1,f
  3155  0700  0CF0               	rrf	___lwdiv@divisor,f
  3156  0701  0B89               	decfsz	9,f
  3157  0702  2EFF               	goto	u345
  3158  0703  3001               	movlw	1
  3159  0704  02F7               	subwf	___lwdiv@counter,f
  3160  0705  1D03               	btfss	3,2
  3161  0706  2EEC               	goto	l769
  3162  0707                     l779:	
  3163  0707  0876               	movf	___lwdiv@quotient+1,w
  3164  0708  00F1               	movwf	?___lwdiv+1
  3165  0709  0875               	movf	___lwdiv@quotient,w
  3166  070A  00F0               	movwf	?___lwdiv
  3167  070B  0008               	return
  3168  070C                     __end_of___lwdiv:	
  3169                           
  3170                           	psect	text6
  3171  066C                     __ptext6:	
  3172 ;; *************** function _SYSTEM_Initialize *****************
  3173 ;; Defined at:
  3174 ;;		line 77 in file "mcc_generated_files/mcc.c"
  3175 ;; Parameters:    Size  Location     Type
  3176 ;;		None
  3177 ;; Auto vars:     Size  Location     Type
  3178 ;;		None
  3179 ;; Return value:  Size  Location     Type
  3180 ;;		None               void
  3181 ;; Registers used:
  3182 ;;		wreg, status,2, status,0, pclath, cstack
  3183 ;; Tracked objects:
  3184 ;;		On entry : 0/0
  3185 ;;		On exit  : 0/0
  3186 ;;		Unchanged: 0/0
  3187 ;; Data sizes:     COMMON   BANK0   BANK1   BANK2   BANK3   BANK4   BANK5   BANK6   BANK7   BANK8   BANK9  BANK10  BANK1
      +1  BANK12
  3188 ;;      Params:         0       0       0       0       0       0       0       0       0       0       0       0       
      +0       0
  3189 ;;      Locals:         0       0       0       0       0       0       0       0       0       0       0       0       
      +0       0
  3190 ;;      Temps:          0       0       0       0       0       0       0       0       0       0       0       0       
      +0       0
  3191 ;;      Totals:         0       0       0       0       0       0       0       0       0       0       0       0       
      +0       0
  3192 ;;Total ram usage:        0 bytes
  3193 ;; Hardware stack levels used:    1
  3194 ;; Hardware stack levels required when called:    1
  3195 ;; This function calls:
  3196 ;;		_ADC1_Initialize
  3197 ;;		_EUSART_Initialize
  3198 ;;		_OSCILLATOR_Initialize
  3199 ;;		_PIN_MANAGER_Initialize
  3200 ;; This function is called by:
  3201 ;;		_main
  3202 ;; This function uses a non-reentrant model
  3203 ;;
  3204                           
  3205                           
  3206                           ;psect for function _SYSTEM_Initialize
  3207  066C                     _SYSTEM_Initialize:	
  3208                           
  3209                           ;mcc.c: 78: OSCILLATOR_Initialize();
  3210                           
  3211                           ;incstack = 0
  3212                           ; Regs used in _SYSTEM_Initialize: [wreg+status,2+status,0+pclath+cstack]
  3213  066C  3186  264A  3186   	fcall	_OSCILLATOR_Initialize
  3214                           
  3215                           ;mcc.c: 79: PIN_MANAGER_Initialize();
  3216  066F  3187  270C  3186   	fcall	_PIN_MANAGER_Initialize
  3217                           
  3218                           ;mcc.c: 80: ADC1_Initialize();
  3219  0672  3186  2658  3186   	fcall	_ADC1_Initialize
  3220                           
  3221                           ;mcc.c: 81: EUSART_Initialize();
  3222  0675  3186  2661         	fcall	_EUSART_Initialize
  3223  0677  0008               	return
  3224  0678                     __end_of_SYSTEM_Initialize:	
  3225                           
  3226                           	psect	text7
  3227  070C                     __ptext7:	
  3228 ;; *************** function _PIN_MANAGER_Initialize *****************
  3229 ;; Defined at:
  3230 ;;		line 51 in file "mcc_generated_files/pin_manager.c"
  3231 ;; Parameters:    Size  Location     Type
  3232 ;;		None
  3233 ;; Auto vars:     Size  Location     Type
  3234 ;;  state           1    0[COMMON] unsigned char 
  3235 ;; Return value:  Size  Location     Type
  3236 ;;		None               void
  3237 ;; Registers used:
  3238 ;;		wreg, status,2
  3239 ;; Tracked objects:
  3240 ;;		On entry : 0/0
  3241 ;;		On exit  : 0/0
  3242 ;;		Unchanged: 0/0
  3243 ;; Data sizes:     COMMON   BANK0   BANK1   BANK2   BANK3   BANK4   BANK5   BANK6   BANK7   BANK8   BANK9  BANK10  BANK1
      +1  BANK12
  3244 ;;      Params:         0       0       0       0       0       0       0       0       0       0       0       0       
      +0       0
  3245 ;;      Locals:         1       0       0       0       0       0       0       0       0       0       0       0       
      +0       0
  3246 ;;      Temps:          0       0       0       0       0       0       0       0       0       0       0       0       
      +0       0
  3247 ;;      Totals:         1       0       0       0       0       0       0       0       0       0       0       0       
      +0       0
  3248 ;;Total ram usage:        1 bytes
  3249 ;; Hardware stack levels used:    1
  3250 ;; This function calls:
  3251 ;;		Nothing
  3252 ;; This function is called by:
  3253 ;;		_SYSTEM_Initialize
  3254 ;; This function uses a non-reentrant model
  3255 ;;
  3256                           
  3257                           
  3258                           ;psect for function _PIN_MANAGER_Initialize
  3259  070C                     _PIN_MANAGER_Initialize:	
  3260                           
  3261                           ;pin_manager.c: 52: LATA = 0x00;
  3262                           
  3263                           ;incstack = 0
  3264                           ; Regs used in _PIN_MANAGER_Initialize: [wreg+status,2]
  3265  070C  0022               	movlb	2	; select bank2
  3266  070D  018C               	clrf	12	;volatile
  3267                           
  3268                           ;pin_manager.c: 53: TRISA = 0x3F;
  3269  070E  303F               	movlw	63
  3270  070F  0021               	movlb	1	; select bank1
  3271  0710  008C               	movwf	12	;volatile
  3272                           
  3273                           ;pin_manager.c: 54: ANSELA = 0x17;
  3274  0711  3017               	movlw	23
  3275  0712  0023               	movlb	3	; select bank3
  3276  0713  008C               	movwf	12	;volatile
  3277                           
  3278                           ;pin_manager.c: 56: LATB = 0x00;
  3279  0714  0022               	movlb	2	; select bank2
  3280  0715  018D               	clrf	13	;volatile
  3281                           
  3282                           ;pin_manager.c: 57: TRISB = 0xF0;
  3283  0716  30F0               	movlw	240
  3284  0717  0021               	movlb	1	; select bank1
  3285  0718  008D               	movwf	13	;volatile
  3286                           
  3287                           ;pin_manager.c: 58: ANSELB = 0x10;
  3288  0719  3010               	movlw	16
  3289  071A  0023               	movlb	3	; select bank3
  3290  071B  008D               	movwf	13	;volatile
  3291                           
  3292                           ;pin_manager.c: 59: WPUB = 0x00;
  3293  071C  0024               	movlb	4	; select bank4
  3294  071D  018D               	clrf	13	;volatile
  3295                           
  3296                           ;pin_manager.c: 61: LATC = 0x00;
  3297  071E  0022               	movlb	2	; select bank2
  3298  071F  018E               	clrf	14	;volatile
  3299                           
  3300                           ;pin_manager.c: 62: TRISC = 0xFF;
  3301  0720  30FF               	movlw	255
  3302  0721  0021               	movlb	1	; select bank1
  3303  0722  008E               	movwf	14	;volatile
  3304                           
  3305                           ;pin_manager.c: 63: ANSELC = 0xCF;
  3306  0723  30CF               	movlw	207
  3307  0724  0023               	movlb	3	; select bank3
  3308  0725  008E               	movwf	14	;volatile
  3309                           
  3310                           ;pin_manager.c: 64: WPUC = 0x00;
  3311  0726  0024               	movlb	4	; select bank4
  3312  0727  018E               	clrf	14	;volatile
  3313                           
  3314                           ;pin_manager.c: 66: OPTION_REGbits.nWPUEN = 0x01;
  3315  0728  0021               	movlb	1	; select bank1
  3316  0729  1795               	bsf	21,7	;volatile
  3317                           
  3318                           ;pin_manager.c: 69: bool state = GIE;
  3319  072A  3000               	movlw	0
  3320  072B  1B8B               	btfsc	11,7	;volatile
  3321  072C  3001               	movlw	1
  3322  072D  00F0               	movwf	PIN_MANAGER_Initialize@state
  3323                           
  3324                           ;pin_manager.c: 70: GIE = 0;
  3325  072E  138B               	bcf	11,7	;volatile
  3326                           
  3327                           ;pin_manager.c: 71: PPSLOCK = 0x55;
  3328  072F  3055               	movlw	85
  3329  0730  003C               	movlb	28	; select bank28
  3330  0731  008F               	movwf	15	;volatile
  3331                           
  3332                           ;pin_manager.c: 72: PPSLOCK = 0xAA;
  3333  0732  30AA               	movlw	170
  3334  0733  008F               	movwf	15	;volatile
  3335                           
  3336                           ;pin_manager.c: 73: PPSLOCKbits.PPSLOCKED = 0x00;
  3337  0734  100F               	bcf	15,0	;volatile
  3338                           
  3339                           ;pin_manager.c: 75: RXPPS = 0x0D;
  3340  0735  300D               	movlw	13
  3341  0736  00A4               	movwf	36	;volatile
  3342                           
  3343                           ;pin_manager.c: 76: RB7PPS = 0x12;
  3344  0737  3012               	movlw	18
  3345  0738  003D               	movlb	29	; select bank29
  3346  0739  009F               	movwf	31	;volatile
  3347                           
  3348                           ;pin_manager.c: 77: PPSLOCK = 0x55;
  3349  073A  3055               	movlw	85
  3350  073B  003C               	movlb	28	; select bank28
  3351  073C  008F               	movwf	15	;volatile
  3352                           
  3353                           ;pin_manager.c: 78: PPSLOCK = 0xAA;
  3354  073D  30AA               	movlw	170
  3355  073E  008F               	movwf	15	;volatile
  3356                           
  3357                           ;pin_manager.c: 79: PPSLOCKbits.PPSLOCKED = 0x01;
  3358  073F  140F               	bsf	15,0	;volatile
  3359                           
  3360                           ;pin_manager.c: 80: GIE = state;
  3361  0740  1C70               	btfss	PIN_MANAGER_Initialize@state,0
  3362  0741  2F44               	goto	u20
  3363  0742  178B               	bsf	11,7	;volatile
  3364  0743  0008               	return
  3365  0744                     u20:	
  3366  0744  138B               	bcf	11,7	;volatile
  3367  0745  0008               	return
  3368  0746                     __end_of_PIN_MANAGER_Initialize:	
  3369                           
  3370                           	psect	text8
  3371  064A                     __ptext8:	
  3372 ;; *************** function _OSCILLATOR_Initialize *****************
  3373 ;; Defined at:
  3374 ;;		line 84 in file "mcc_generated_files/mcc.c"
  3375 ;; Parameters:    Size  Location     Type
  3376 ;;		None
  3377 ;; Auto vars:     Size  Location     Type
  3378 ;;		None
  3379 ;; Return value:  Size  Location     Type
  3380 ;;		None               void
  3381 ;; Registers used:
  3382 ;;		wreg, status,2
  3383 ;; Tracked objects:
  3384 ;;		On entry : 0/0
  3385 ;;		On exit  : 0/0
  3386 ;;		Unchanged: 0/0
  3387 ;; Data sizes:     COMMON   BANK0   BANK1   BANK2   BANK3   BANK4   BANK5   BANK6   BANK7   BANK8   BANK9  BANK10  BANK1
      +1  BANK12
  3388 ;;      Params:         0       0       0       0       0       0       0       0       0       0       0       0       
      +0       0
  3389 ;;      Locals:         0       0       0       0       0       0       0       0       0       0       0       0       
      +0       0
  3390 ;;      Temps:          0       0       0       0       0       0       0       0       0       0       0       0       
      +0       0
  3391 ;;      Totals:         0       0       0       0       0       0       0       0       0       0       0       0       
      +0       0
  3392 ;;Total ram usage:        0 bytes
  3393 ;; Hardware stack levels used:    1
  3394 ;; This function calls:
  3395 ;;		Nothing
  3396 ;; This function is called by:
  3397 ;;		_SYSTEM_Initialize
  3398 ;; This function uses a non-reentrant model
  3399 ;;
  3400                           
  3401                           
  3402                           ;psect for function _OSCILLATOR_Initialize
  3403  064A                     _OSCILLATOR_Initialize:	
  3404                           
  3405                           ;mcc.c: 86: OSCCON = 0x3A;
  3406                           
  3407                           ;incstack = 0
  3408                           ; Regs used in _OSCILLATOR_Initialize: [wreg+status,2]
  3409  064A  303A               	movlw	58
  3410  064B  0021               	movlb	1	; select bank1
  3411  064C  0099               	movwf	25	;volatile
  3412                           
  3413                           ;mcc.c: 88: OSCSTAT = 0x00;
  3414  064D  019A               	clrf	26	;volatile
  3415                           
  3416                           ;mcc.c: 90: OSCTUNE = 0x00;
  3417  064E  0198               	clrf	24	;volatile
  3418  064F  0008               	return
  3419  0650                     __end_of_OSCILLATOR_Initialize:	
  3420                           
  3421                           	psect	text9
  3422  0661                     __ptext9:	
  3423 ;; *************** function _EUSART_Initialize *****************
  3424 ;; Defined at:
  3425 ;;		line 56 in file "mcc_generated_files/eusart.c"
  3426 ;; Parameters:    Size  Location     Type
  3427 ;;		None
  3428 ;; Auto vars:     Size  Location     Type
  3429 ;;		None
  3430 ;; Return value:  Size  Location     Type
  3431 ;;		None               void
  3432 ;; Registers used:
  3433 ;;		wreg, status,2
  3434 ;; Tracked objects:
  3435 ;;		On entry : 0/0
  3436 ;;		On exit  : 0/0
  3437 ;;		Unchanged: 0/0
  3438 ;; Data sizes:     COMMON   BANK0   BANK1   BANK2   BANK3   BANK4   BANK5   BANK6   BANK7   BANK8   BANK9  BANK10  BANK1
      +1  BANK12
  3439 ;;      Params:         0       0       0       0       0       0       0       0       0       0       0       0       
      +0       0
  3440 ;;      Locals:         0       0       0       0       0       0       0       0       0       0       0       0       
      +0       0
  3441 ;;      Temps:          0       0       0       0       0       0       0       0       0       0       0       0       
      +0       0
  3442 ;;      Totals:         0       0       0       0       0       0       0       0       0       0       0       0       
      +0       0
  3443 ;;Total ram usage:        0 bytes
  3444 ;; Hardware stack levels used:    1
  3445 ;; This function calls:
  3446 ;;		Nothing
  3447 ;; This function is called by:
  3448 ;;		_SYSTEM_Initialize
  3449 ;; This function uses a non-reentrant model
  3450 ;;
  3451                           
  3452                           
  3453                           ;psect for function _EUSART_Initialize
  3454  0661                     _EUSART_Initialize:	
  3455                           
  3456                           ;eusart.c: 60: BAUD1CON = 0x48;
  3457                           
  3458                           ;incstack = 0
  3459                           ; Regs used in _EUSART_Initialize: [wreg+status,2]
  3460  0661  3048               	movlw	72
  3461  0662  0023               	movlb	3	; select bank3
  3462  0663  009F               	movwf	31	;volatile
  3463                           
  3464                           ;eusart.c: 63: RC1STA = 0x80;
  3465  0664  3080               	movlw	128
  3466  0665  009D               	movwf	29	;volatile
  3467                           
  3468                           ;eusart.c: 66: TX1STA = 0x26;
  3469  0666  3026               	movlw	38
  3470  0667  009E               	movwf	30	;volatile
  3471                           
  3472                           ;eusart.c: 69: SPBRGL = 0x0C;
  3473  0668  300C               	movlw	12
  3474  0669  009B               	movwf	27	;volatile
  3475                           
  3476                           ;eusart.c: 72: SPBRGH = 0x00;
  3477  066A  019C               	clrf	28	;volatile
  3478  066B  0008               	return
  3479  066C                     __end_of_EUSART_Initialize:	
  3480                           
  3481                           	psect	text10
  3482  0658                     __ptext10:	
  3483 ;; *************** function _ADC1_Initialize *****************
  3484 ;; Defined at:
  3485 ;;		line 65 in file "mcc_generated_files/adc1.c"
  3486 ;; Parameters:    Size  Location     Type
  3487 ;;		None
  3488 ;; Auto vars:     Size  Location     Type
  3489 ;;		None
  3490 ;; Return value:  Size  Location     Type
  3491 ;;		None               void
  3492 ;; Registers used:
  3493 ;;		wreg, status,2
  3494 ;; Tracked objects:
  3495 ;;		On entry : 0/0
  3496 ;;		On exit  : 0/0
  3497 ;;		Unchanged: 0/0
  3498 ;; Data sizes:     COMMON   BANK0   BANK1   BANK2   BANK3   BANK4   BANK5   BANK6   BANK7   BANK8   BANK9  BANK10  BANK1
      +1  BANK12
  3499 ;;      Params:         0       0       0       0       0       0       0       0       0       0       0       0       
      +0       0
  3500 ;;      Locals:         0       0       0       0       0       0       0       0       0       0       0       0       
      +0       0
  3501 ;;      Temps:          0       0       0       0       0       0       0       0       0       0       0       0       
      +0       0
  3502 ;;      Totals:         0       0       0       0       0       0       0       0       0       0       0       0       
      +0       0
  3503 ;;Total ram usage:        0 bytes
  3504 ;; Hardware stack levels used:    1
  3505 ;; This function calls:
  3506 ;;		Nothing
  3507 ;; This function is called by:
  3508 ;;		_SYSTEM_Initialize
  3509 ;; This function uses a non-reentrant model
  3510 ;;
  3511                           
  3512                           
  3513                           ;psect for function _ADC1_Initialize
  3514  0658                     _ADC1_Initialize:	
  3515                           
  3516                           ;adc1.c: 69: ADCON0 = 0x01;
  3517                           
  3518                           ;incstack = 0
  3519                           ; Regs used in _ADC1_Initialize: [wreg+status,2]
  3520  0658  3001               	movlw	1
  3521  0659  0021               	movlb	1	; select bank1
  3522  065A  009D               	movwf	29	;volatile
  3523                           
  3524                           ;adc1.c: 72: ADCON1 = 0xC0;
  3525  065B  30C0               	movlw	192
  3526  065C  009E               	movwf	30	;volatile
  3527                           
  3528                           ;adc1.c: 75: ADCON2 = 0x00;
  3529  065D  019F               	clrf	31	;volatile
  3530                           
  3531                           ;adc1.c: 78: ADRESL = 0x00;
  3532  065E  019B               	clrf	27	;volatile
  3533                           
  3534                           ;adc1.c: 81: ADRESH = 0x00;
  3535  065F  019C               	clrf	28	;volatile
  3536  0660  0008               	return
  3537  0661                     __end_of_ADC1_Initialize:	
  3538                           
  3539                           	psect	text11
  3540  0678                     __ptext11:	
  3541 ;; *************** function _ADC1_GetConversion *****************
  3542 ;; Defined at:
  3543 ;;		line 109 in file "mcc_generated_files/adc1.c"
  3544 ;; Parameters:    Size  Location     Type
  3545 ;;  channel         1    wreg     enum E11828
  3546 ;; Auto vars:     Size  Location     Type
  3547 ;;  channel         1    3[COMMON] enum E11828
  3548 ;; Return value:  Size  Location     Type
  3549 ;;                  2    0[COMMON] unsigned int 
  3550 ;; Registers used:
  3551 ;;		wreg, status,2, status,0
  3552 ;; Tracked objects:
  3553 ;;		On entry : 0/0
  3554 ;;		On exit  : 0/0
  3555 ;;		Unchanged: 0/0
  3556 ;; Data sizes:     COMMON   BANK0   BANK1   BANK2   BANK3   BANK4   BANK5   BANK6   BANK7   BANK8   BANK9  BANK10  BANK1
      +1  BANK12
  3557 ;;      Params:         2       0       0       0       0       0       0       0       0       0       0       0       
      +0       0
  3558 ;;      Locals:         1       0       0       0       0       0       0       0       0       0       0       0       
      +0       0
  3559 ;;      Temps:          1       0       0       0       0       0       0       0       0       0       0       0       
      +0       0
  3560 ;;      Totals:         4       0       0       0       0       0       0       0       0       0       0       0       
      +0       0
  3561 ;;Total ram usage:        4 bytes
  3562 ;; Hardware stack levels used:    1
  3563 ;; This function calls:
  3564 ;;		Nothing
  3565 ;; This function is called by:
  3566 ;;		_main
  3567 ;; This function uses a non-reentrant model
  3568 ;;
  3569                           
  3570                           
  3571                           ;psect for function _ADC1_GetConversion
  3572  0678                     _ADC1_GetConversion:	
  3573                           
  3574                           ;incstack = 0
  3575                           ; Regs used in _ADC1_GetConversion: [wreg+status,2+status,0]
  3576                           ;ADC1_GetConversion@channel stored from wreg
  3577  0678  00F3               	movwf	ADC1_GetConversion@channel
  3578                           
  3579                           ;adc1.c: 111: ADCON0bits.CHS = channel;
  3580  0679  0873               	movf	ADC1_GetConversion@channel,w
  3581  067A  00F2               	movwf	??_ADC1_GetConversion
  3582  067B  0DF2               	rlf	??_ADC1_GetConversion,f
  3583  067C  0DF2               	rlf	??_ADC1_GetConversion,f
  3584  067D  0021               	movlb	1	; select bank1
  3585  067E  081D               	movf	29,w	;volatile
  3586  067F  0672               	xorwf	??_ADC1_GetConversion,w
  3587  0680  3983               	andlw	-125
  3588  0681  0672               	xorwf	??_ADC1_GetConversion,w
  3589  0682  009D               	movwf	29	;volatile
  3590                           
  3591                           ;adc1.c: 114: ADCON0bits.ADON = 1;
  3592  0683  141D               	bsf	29,0	;volatile
  3593                           
  3594                           ;adc1.c: 120: ADCON0bits.GO_nDONE = 1;
  3595                           
  3596                           ;adc1.c: 117: _delay((unsigned long)((5)*(500000/4000000.0)));
  3597  0684  0021               	movlb	1	; select bank1
  3598  0685  149D               	bsf	29,1	;volatile
  3599  0686                     l69:	
  3600                           ;adc1.c: 123: while (ADCON0bits.GO_nDONE) {
  3601                           
  3602  0686  189D               	btfsc	29,1	;volatile
  3603  0687  2E86               	goto	l69
  3604                           
  3605                           ;adc1.c: 124: }
  3606                           ;adc1.c: 127: return ((ADRESH << 8) + ADRESL);
  3607  0688  081C               	movf	28,w	;volatile
  3608  0689  00F1               	movwf	?_ADC1_GetConversion+1
  3609  068A  081B               	movf	27,w	;volatile
  3610  068B  00F0               	movwf	?_ADC1_GetConversion
  3611  068C  0008               	return
  3612  068D                     __end_of_ADC1_GetConversion:	
  3613  007E                     btemp	set	126	;btemp
  3614  007E                     wtemp	set	126
  3615  007E                     wtemp0	set	126
  3616  0080                     wtemp1	set	128
  3617  0082                     wtemp2	set	130
  3618  0084                     wtemp3	set	132
  3619  0086                     wtemp4	set	134
  3620  0088                     wtemp5	set	136
  3621  007F                     wtemp6	set	127
  3622  007E                     ttemp	set	126
  3623  007E                     ttemp0	set	126
  3624  0081                     ttemp1	set	129
  3625  0084                     ttemp2	set	132
  3626  0087                     ttemp3	set	135
  3627  007F                     ttemp4	set	127
  3628  007E                     ltemp	set	126
  3629  007E                     ltemp0	set	126
  3630  0082                     ltemp1	set	130
  3631  0086                     ltemp2	set	134
  3632  0080                     ltemp3	set	128


Data Sizes:
    Strings     40
    Constant    10
    Data        0
    BSS         0
    Persistent  0
    Stack       0

Auto Spaces:
    Space          Size  Autos    Used
    COMMON           14     14      14
    BANK0            80     16      16
    BANK1            80      0       0
    BANK2            80      0       0
    BANK3            80      0       0
    BANK4            80      0       0
    BANK5            80      0       0
    BANK6            80      0       0
    BANK7            80      0       0
    BANK8            80      0       0
    BANK9            80      0       0
    BANK10           80      0       0
    BANK11           80      0       0
    BANK12           32      0       0

Pointer List with Targets:

    printf@f	PTR const unsigned char  size(2) Largest target is 40
		 -> STR_1(CODE[40]), 

    printf@ap	PTR void [1] size(1) Largest target is 2
		 -> ?_printf(BANK0[2]), 


Critical Paths under _main in COMMON

    _printf->___lwmod
    _putch->_EUSART_Write
    ___lwmod->___lwdiv
    _SYSTEM_Initialize->_PIN_MANAGER_Initialize

Critical Paths under _main in BANK0

    _main->_printf

Critical Paths under _main in BANK1

    None.

Critical Paths under _main in BANK2

    None.

Critical Paths under _main in BANK3

    None.

Critical Paths under _main in BANK4

    None.

Critical Paths under _main in BANK5

    None.

Critical Paths under _main in BANK6

    None.

Critical Paths under _main in BANK7

    None.

Critical Paths under _main in BANK8

    None.

Critical Paths under _main in BANK9

    None.

Critical Paths under _main in BANK10

    None.

Critical Paths under _main in BANK11

    None.

Critical Paths under _main in BANK12

    None.

Call Graph Tables:

 ---------------------------------------------------------------------------------
 (Depth) Function   	        Calls       Base Space   Used Autos Params    Refs
 ---------------------------------------------------------------------------------
 (0) _main                                                 2     2      0    1108
                                             14 BANK0      2     2      0
                 _ADC1_GetConversion
                  _SYSTEM_Initialize
                             _printf
 ---------------------------------------------------------------------------------
 (1) _printf                                              22    18      4    1071
                                              0 BANK0     14    10      4
                 _ADC1_GetConversion (ARG)
                            ___lwdiv
                            ___lwmod
                              _putch
 ---------------------------------------------------------------------------------
 (2) _putch                                                1     1      0      44
                                              1 COMMON     1     1      0
                       _EUSART_Write
 ---------------------------------------------------------------------------------
 (3) _EUSART_Write                                         1     1      0      22
                                              0 COMMON     1     1      0
 ---------------------------------------------------------------------------------
 (2) ___lwmod                                              6     2      4     287
                                              8 COMMON     6     2      4
                            ___lwdiv (ARG)
 ---------------------------------------------------------------------------------
 (2) ___lwdiv                                              8     4      4     290
                                              0 COMMON     8     4      4
 ---------------------------------------------------------------------------------
 (1) _SYSTEM_Initialize                                    0     0      0      15
                    _ADC1_Initialize
                  _EUSART_Initialize
              _OSCILLATOR_Initialize
             _PIN_MANAGER_Initialize
 ---------------------------------------------------------------------------------
 (2) _PIN_MANAGER_Initialize                               1     1      0      15
                                              0 COMMON     1     1      0
 ---------------------------------------------------------------------------------
 (2) _OSCILLATOR_Initialize                                0     0      0       0
 ---------------------------------------------------------------------------------
 (2) _EUSART_Initialize                                    0     0      0       0
 ---------------------------------------------------------------------------------
 (2) _ADC1_Initialize                                      0     0      0       0
 ---------------------------------------------------------------------------------
 (1) _ADC1_GetConversion                                   4     2      2      22
                                              0 COMMON     4     2      2
 ---------------------------------------------------------------------------------
 Estimated maximum stack depth 3
 ---------------------------------------------------------------------------------

 Call Graph Graphs:

 _main (ROOT)
   _ADC1_GetConversion
   _SYSTEM_Initialize
     _ADC1_Initialize
     _EUSART_Initialize
     _OSCILLATOR_Initialize
     _PIN_MANAGER_Initialize
   _printf
     _ADC1_GetConversion (ARG)
     ___lwdiv (ARG)
     ___lwmod (ARG)
       ___lwdiv (ARG)
     _putch (ARG)
       _EUSART_Write

 Address spaces:
Name               Size   Autos  Total    Cost      Usage
BIGRAM             3E0      0       0       0        0.0%
NULL                 0      0       0       0        0.0%
CODE                 0      0       0       0        0.0%
BITCOMMON            E      0       0       1        0.0%
BITSFR0              0      0       0       1        0.0%
SFR0                 0      0       0       1        0.0%
COMMON               E      E       E       2      100.0%
BITSFR1              0      0       0       2        0.0%
SFR1                 0      0       0       2        0.0%
BITSFR2              0      0       0       3        0.0%
SFR2                 0      0       0       3        0.0%
STACK                0      0       0       3        0.0%
BITBANK0            50      0       0       4        0.0%
BITSFR3              0      0       0       4        0.0%
SFR3                 0      0       0       4        0.0%
BANK0               50     10      10       5       20.0%
BITSFR4              0      0       0       5        0.0%
SFR4                 0      0       0       5        0.0%
BITBANK1            50      0       0       6        0.0%
BITSFR5              0      0       0       6        0.0%
SFR5                 0      0       0       6        0.0%
BANK1               50      0       0       7        0.0%
BITSFR6              0      0       0       7        0.0%
SFR6                 0      0       0       7        0.0%
BITBANK2            50      0       0       8        0.0%
BITSFR7              0      0       0       8        0.0%
SFR7                 0      0       0       8        0.0%
BANK2               50      0       0       9        0.0%
BITSFR8              0      0       0       9        0.0%
SFR8                 0      0       0       9        0.0%
BITBANK3            50      0       0      10        0.0%
BITSFR9              0      0       0      10        0.0%
SFR9                 0      0       0      10        0.0%
BANK3               50      0       0      11        0.0%
BITSFR10             0      0       0      11        0.0%
SFR10                0      0       0      11        0.0%
BITBANK4            50      0       0      12        0.0%
BITSFR11             0      0       0      12        0.0%
SFR11                0      0       0      12        0.0%
BANK4               50      0       0      13        0.0%
BITSFR12             0      0       0      13        0.0%
SFR12                0      0       0      13        0.0%
BITBANK5            50      0       0      14        0.0%
BITSFR13             0      0       0      14        0.0%
SFR13                0      0       0      14        0.0%
BANK5               50      0       0      15        0.0%
BITSFR14             0      0       0      15        0.0%
SFR14                0      0       0      15        0.0%
BITBANK6            50      0       0      16        0.0%
BITSFR15             0      0       0      16        0.0%
SFR15                0      0       0      16        0.0%
BANK6               50      0       0      17        0.0%
BITSFR16             0      0       0      17        0.0%
SFR16                0      0       0      17        0.0%
BITBANK7            50      0       0      18        0.0%
BITSFR17             0      0       0      18        0.0%
SFR17                0      0       0      18        0.0%
BANK7               50      0       0      19        0.0%
BITSFR18             0      0       0      19        0.0%
SFR18                0      0       0      19        0.0%
BITSFR19             0      0       0      20        0.0%
SFR19                0      0       0      20        0.0%
ABS                  0      0       0      20        0.0%
BITBANK8            50      0       0      21        0.0%
BITSFR20             0      0       0      21        0.0%
SFR20                0      0       0      21        0.0%
BANK8               50      0       0      22        0.0%
BITSFR21             0      0       0      22        0.0%
SFR21                0      0       0      22        0.0%
BITBANK9            50      0       0      23        0.0%
BITSFR22             0      0       0      23        0.0%
SFR22                0      0       0      23        0.0%
BANK9               50      0       0      24        0.0%
BITSFR23             0      0       0      24        0.0%
SFR23                0      0       0      24        0.0%
BITBANK10           50      0       0      25        0.0%
BITSFR24             0      0       0      25        0.0%
SFR24                0      0       0      25        0.0%
BANK10              50      0       0      26        0.0%
BITSFR25             0      0       0      26        0.0%
SFR25                0      0       0      26        0.0%
BITBANK11           50      0       0      27        0.0%
BITSFR26             0      0       0      27        0.0%
SFR26                0      0       0      27        0.0%
BANK11              50      0       0      28        0.0%
BITSFR27             0      0       0      28        0.0%
SFR27                0      0       0      28        0.0%
BITBANK12           20      0       0      29        0.0%
BITSFR28             0      0       0      29        0.0%
SFR28                0      0       0      29        0.0%
BANK12              20      0       0      30        0.0%
BITSFR29             0      0       0      30        0.0%
SFR29                0      0       0      30        0.0%
BITSFR30             0      0       0      31        0.0%
SFR30                0      0       0      31        0.0%
DATA                 0      0       0      31        0.0%
BITSFR31             0      0       0      32        0.0%
SFR31                0      0       0      32        0.0%


Microchip Technology PIC Macro Assembler V1.35 build -356382666 
Symbol Table                                                                                   Mon Jul 25 00:36:38 2016

                    __CFG_CP$OFF 0000                               l31 0651                               l69 0686  
                             u20 0744       __end_of_ADC1_GetConversion 068D                      __CFG_LVP$ON 0000  
                            l173 07FC                              l801 06D3                              l823 0767  
                            l851 07BB                              l861 07C8                              l845 079C  
                            l829 0780                              l775 06FE                              l767 06E0  
                            l791 06B2                              l855 07C3                              l839 0796  
                            l863 074B                              l769 06EC                              l793 06BE  
                            l779 0707                              l867 0690                              l797 06CA  
                            _GIE 005F                              u305 06E3                              u325 06ED  
                            u405 06CB                              u335 06F7                              u345 06FF  
                            u517 06A6                              u375 06B5                              u465 07B1  
                            u395 06C4                     __CFG_BORV$LO 0000                              wreg 0009  
                   __CFG_IESO$ON 0000                     __CFG_ZCD$OFF 0000                             STR_1 080A  
                           _LATA 010C                             _LATB 010D                             _LATC 010E  
                           _WPUB 020D                             _WPUC 020E                     __CFG_WRT$OFF 0000  
                  __CFG_FCMEN$ON 0000                             _main 068D                             fsr0h 0005  
                           fsr1h 0007                             fsr0l 0004                             indf0 0000  
                           fsr1l 0006                             btemp 007E                    __CFG_BOREN$ON 0000  
                           ltemp 007E                             start 0002                             ttemp 007E  
                           wtemp 007E                    __CFG_MCLRE$ON 0000                    __CFG_PLLEN$ON 0000  
                  ?_EUSART_Write 0070   __size_of_OSCILLATOR_Initialize 0006    __end_of_OSCILLATOR_Initialize 0650  
                          ?_main 0070                    __CFG_WDTE$OFF 0000                  __end_of___lwdiv 070C  
                __end_of___lwmod 06D8                            _TRISA 008C                            _TRISB 008D  
                          _TRISC 008E                            _RXPPS 0E24                  __end_of_dpowers 080A  
                          _putch 0645                            ltemp0 007E                            ltemp1 0082  
                          ltemp2 0086                            ltemp3 0080                            ttemp0 007E  
                          ttemp1 0081                            ttemp2 0084                            ttemp3 0087  
                          ttemp4 007F                            status 0003                            wtemp0 007E  
                          wtemp1 0080                            wtemp2 0082                            wtemp3 0084  
                          wtemp4 0086                            wtemp5 0088                            wtemp6 007F  
                __initialization 07FD                     __end_of_main 06AC                   ??_EUSART_Write 0070  
                 __CFG_LPBOR$OFF 0000                           ??_main 002E                           _ADCON0 009D  
                         _ADCON1 009E                           _ADCON2 009F                           _ADRESH 009C  
                         _ADRESL 009B                           _ANSELA 018C                           ?_putch 0070  
                         _ANSELB 018D                           _ANSELC 018E                           _RC1REG 0199  
                         _RC1STA 019D                           _RB7PPS 0E9F                           _OSCCON 0099  
                         _SPBRGH 019C                           _SPBRGL 019B                           _TX1REG 019A  
                         _TX1STA 019E                   __CFG_PWRTE$OFF 0000                   __CFG_STVREN$ON 0000  
                      ??___lwdiv 0074                        ??___lwmod 007C                           _printf 0746  
       __size_of_ADC1_Initialize 0009                _SYSTEM_Initialize 066C          __end_of__initialization 07FD  
             ?_SYSTEM_Initialize 0070                   __pcstackCOMMON 0070              ??_SYSTEM_Initialize 0071  
                  __end_of_putch 064A                   _OPTION_REGbits 0095        __end_of_SYSTEM_Initialize 0678  
                        ??_putch 0071               _ADC1_GetConversion 0678             __end_of_EUSART_Write 0658  
            ?_ADC1_GetConversion 0070                       __pmaintext 068D                  __CFG_PPS1WAY$ON 0000  
                        ?_printf 0020             ??_ADC1_GetConversion 0072                  __CFG_WDTCCS$SWC 0000  
                        _OSCSTAT 009A                          _OSCTUNE 0098                          _PPSLOCK 0E0F  
              ??_ADC1_Initialize 0070                          ___lwdiv 06D8                          ___lwmod 06AC  
                        __ptext1 0746                          __ptext2 0645                          __ptext3 0650  
                        __ptext4 06AC                          __ptext5 06D8                          __ptext6 066C  
                        __ptext7 070C                          __ptext8 064A                          __ptext9 0661  
                __size_of_printf 00B7                          _dpowers 0800            _OSCILLATOR_Initialize 064A  
       ??_PIN_MANAGER_Initialize 0070       __size_of_SYSTEM_Initialize 000C             end_of_initialization 07FD  
              _EUSART_Initialize 0661               ?_EUSART_Initialize 0070                          printf@c 002D  
                        printf@f 0020                     __pstringtext 0800              ??_EUSART_Initialize 0070  
               __CFG_FOSC$INTOSC 0000            __size_of_EUSART_Write 0008        __end_of_EUSART_Initialize 066C  
      ADC1_GetConversion@channel 0073                     _EUSART_Write 0650           ?_OSCILLATOR_Initialize 0070  
                 __end_of_printf 07FD              start_initialization 07FD  __size_of_PIN_MANAGER_Initialize 003A  
                    putch@txData 0071                  _ADC1_Initialize 0658                         ??_printf 0024  
                      ___latbits 0002                    __pcstackBANK0 0020       __size_of_EUSART_Initialize 000B  
               ___lwdiv@dividend 0072           _PIN_MANAGER_Initialize 070C                         ?___lwdiv 0070  
                       ?___lwmod 0078                         _BAUD1CON 019F      __size_of_ADC1_GetConversion 0015  
               ___lwdiv@quotient 0075                   __size_of_putch 0005          __end_of_ADC1_Initialize 0661  
                       _PIR1bits 0010             __CFG_WDTCPS$WDTCPS1F 0000                       _ADCON0bits 009D  
                     printf@flag 0029                       printf@prec 002A          ??_OSCILLATOR_Initialize 0070  
               __size_of___lwdiv 0034                 __size_of___lwmod 002C                  ___lwdiv@divisor 0070  
                ___lwdiv@counter 0077                         __ptext10 0658                         __ptext11 0678  
                  __size_of_main 001F             __CFG_WDTCWS$WDTCWSSW 0000                       _RC1STAbits 019D  
               ?_ADC1_Initialize 0070                        printf@val 002B      PIN_MANAGER_Initialize@state 0070  
               ___lwmod@dividend 007A          ?_PIN_MANAGER_Initialize 0070                __CFG_CLKOUTEN$OFF 0000  
                    _PPSLOCKbits 0E0F                         printf@ap 0028                  ___lwmod@divisor 0078  
                ___lwmod@counter 007D               EUSART_Write@txData 0070   __end_of_PIN_MANAGER_Initialize 0746  
